(dp0
F6013354001.0
F237.0
sF6013354002.0
F1752.0
sF6075015200.0
F1596.0
sF6075023400.0
F2089.0
sF6001410100.0
F495.0
sF6081601601.0
F3684.0
sF6081601603.0
F2358.0
sF6081601604.0
F1798.0
sF6081601605.0
F402.0
sF6081609800.0
F745.0
sF6013313101.0
F2781.0
sF6013313102.0
F1358.0
sF6013313103.0
F268.0
sF6085509201.0
F1320.0
sF6085509202.0
F2443.0
sF6001442900.0
F322.0
sF6001451101.0
F13269.0
sF6001451102.0
F510.0
sF6075015300.0
F1213.0
sF6041125000.0
F1165.0
sF6097150100.0
F3630.0
sF6001410200.0
F142.0
sF6081601700.0
F447.0
sF6013305000.0
F4703.0
sF6081609900.0
F224.0
sF6085501101.0
F593.0
sF6085501102.0
F280.0
sF6013313203.0
F89.0
sF6013313204.0
F390.0
sF6013313205.0
F249.0
sF6013313206.0
F382.0
sF6085509303.0
F326.0
sF6085509304.0
F4047.0
sF6001443001.0
F123.0
sF6001443002.0
F335.0
sF6001451201.0
F341.0
sF6001451202.0
F1000.0
sF6081608400.0
F1703.0
sF6075015400.0
F2272.0
sF6013387000.0
F377.0
sF6097150202.0
F3241.0
sF6097150203.0
F1691.0
sF6001410300.0
F231.0
sF6081601800.0
F838.0
sF6085501200.0
F434.0
sF6095252000.0
F1597.0
sF6085509401.0
F1163.0
sF6085509403.0
F414.0
sF6085509404.0
F2987.0
sF6001443102.0
F284.0
sF6001443103.0
F1115.0
sF6001443104.0
F790.0
sF6001443105.0
F402.0
sF6001451300.0
F5274.0
sF6085503708.0
F634.0
sF6001441501.0
F421.0
sF6013346101.0
F175.0
sF6013346102.0
F497.0
sF6001441503.0
F59596.0
sF6085503713.0
F242.0
sF6041117000.0
F1883.0
sF6075015500.0
F3198.0
sF6001402200.0
F263.0
sF6097150303.0
F481.0
sF6001410400.0
F376.0
sF6097150305.0
F941.0
sF6097150306.0
F267.0
sF6075040100.0
F1651.0
sF6081601901.0
F156.0
sF6081601902.0
F3294.0
sF6081610100.0
F151.0
sF6085511913.0
F257.0
sF6085509500.0
F493.0
sF6095252202.0
F2203.0
sF6001443200.0
F238.0
sF6001451401.0
F1686.0
sF6001451403.0
F92.0
sF6001451404.0
F364.0
sF6013346201.0
F943.0
sF6013346203.0
F1443.0
sF6013346204.0
F675.0
sF6075015600.0
F867.0
sF6085501000.0
F2197.0
sF6013379000.0
F1399.0
sF6001410500.0
F1344.0
sF6075040200.0
F1634.0
sF6085505100.0
F19064.0
sF6081602000.0
F634.0
sF6085501401.0
F948.0
sF6085501402.0
F267.0
sF6081610203.0
F1458.0
sF6001435102.0
F3228.0
sF6001435103.0
F439.0
sF6085509600.0
F8420.0
sF6001443301.0
F137.0
sF6001451501.0
F1354.0
sF6001451503.0
F1571.0
sF6001451504.0
F2040.0
sF6001451505.0
F68.0
sF6001451506.0
F104.0
sF6013338101.0
F669.0
sF6013338102.0
F297.0
sF6001443321.0
F933.0
sF6001443322.0
F306.0
sF6041109001.0
F499.0
sF6041109002.0
F567.0
sF6075015700.0
F7819.0
sF6001402400.0
F183.0
sF6097150500.0
F2799.0
sF6081602100.0
F667.0
sF6085501501.0
F513.0
sF6085501502.0
F230.0
sF6081610303.0
F514.0
sF6001435200.0
F259.0
sF6085509700.0
F447.0
sF6013330000.0
F800.0
sF6001451601.0
F1500.0
sF6001451602.0
F2101.0
sF6013338201.0
F7693.0
sF6013338203.0
F2310.0
sF6013338204.0
F959.0
sF6013371000.0
F530.0
sF6075015801.0
F597.0
sF6075015802.0
F302.0
sF6081611200.0
F578.0
sF6001402500.0
F320.0
sF6097150601.0
F165.0
sF6097150602.0
F407.0
sF6097150603.0
F1341.0
sF6097150607.0
F3321.0
sF6097150609.0
F2443.0
sF6097150610.0
F123.0
sF6097150611.0
F159.0
sF6097150612.0
F7425.0
sF6081602200.0
F1312.0
sF6001427100.0
F890.0
sF6085501600.0
F810.0
sF6001435300.0
F586.0
sF6085509801.0
F1491.0
sF6085509802.0
F453.0
sF6001451701.0
F339.0
sF6001433104.0
F2667.0
sF6001451703.0
F132.0
sF6001451704.0
F355.0
sF6095250105.0
F2383.0
sF6095250106.0
F437.0
sF6013338301.0
F1212.0
sF6013338302.0
F5844.0
sF6075015900.0
F1871.0
sF6001402600.0
F560.0
sF6097150701.0
F4784.0
sF6097150702.0
F317.0
sF6075042601.0
F708.0
sF6081602300.0
F38471.0
sF6001427200.0
F1235.0
sF6081610500.0
F2169.0
sF6001435400.0
F2745.0
sF6085509901.0
F3858.0
sF6085509902.0
F1518.0
sF6013322000.0
F3956.0
sF6095250200.0
F674.0
sF6041101100.0
F682.0
sF6013363000.0
F2086.0
sF6075016000.0
F2443.0
sF6001402700.0
F363.0
sF6097150800.0
F1840.0
sF6001433400.0
F4601.0
sF6081602400.0
F1261.0
sF6001427300.0
F3069.0
sF6085501800.0
F605.0
sF6081610601.0
F769.0
sF6081610602.0
F785.0
sF6001435500.0
F789.0
sF6085510001.0
F1509.0
sF6085510002.0
F492.0
sF6095250300.0
F386.0
sF6001441601.0
F144.0
sF6001441602.0
F723.0
sF6041101200.0
F1939.0
sF6075016100.0
F1146.0
sF6001402800.0
F8045.0
sF6097150901.0
F1755.0
sF6097150902.0
F490.0
sF6081602500.0
F197.0
sF6085501900.0
F2723.0
sF6001435601.0
F430.0
sF6001435602.0
F300.0
sF6085510100.0
F113.0
sF6095250400.0
F360.0
sF6095252305.0
F2232.0
sF6075020800.0
F3601.0
sF6095252310.0
F466.0
sF6075016200.0
F7338.0
sF6095252311.0
F273.0
sF6095252312.0
F1119.0
sF6001402900.0
F19060.0
sF6095252313.0
F968.0
sF6097151000.0
F2050.0
sF6075032601.0
F1024.0
sF6075032602.0
F579.0
sF6095252314.0
F661.0
sF6075060400.0
F756.0
sF6095252315.0
F244.0
sF6081602600.0
F1228.0
sF6085512029.0
F650.0
sF6081610800.0
F435.0
sF6085502001.0
F1393.0
sF6085502002.0
F904.0
sF6001435700.0
F499.0
sF6013314102.0
F259.0
sF6013314103.0
F454.0
sF6085510200.0
F692.0
sF6041103200.0
F1186.0
sF6095250501.0
F233.0
sF6095250502.0
F648.0
sF6085512001.0
F6209.0
sF6013355107.0
F137.0
sF6013355108.0
F1022.0
sF6013355109.0
F1780.0
sF6013355110.0
F706.0
sF6013355111.0
F180.0
sF6013355112.0
F815.0
sF6013355113.0
F1294.0
sF6013355114.0
F1186.0
sF6013355115.0
F464.0
sF6013355116.0
F814.0
sF6013355117.0
F469.0
sF6001403000.0
F15143.0
sF6075032700.0
F498.0
sF6081602700.0
F260.0
sF6001427600.0
F653.0
sF6013306002.0
F1104.0
sF6013306003.0
F671.0
sF6081610900.0
F443.0
sF6085502101.0
F1524.0
sF6085502102.0
F2203.0
sF6013314200.0
F253.0
sF6085510300.0
F3027.0
sF6095250601.0
F198.0
sF6095250604.0
F207.0
sF6095250605.0
F347.0
sF6013347000.0
F420.0
sF6013355200.0
F489.0
sF6075016400.0
F1370.0
sF6041126100.0
F1562.0
sF6081611300.0
F752.0
sF6001403100.0
F7070.0
sF6013388000.0
F449.0
sF6097151201.0
F7794.0
sF6075032802.0
F1298.0
sF6097151203.0
F748.0
sF6097151204.0
F574.0
sF6081602800.0
F206.0
sF6001427700.0
F645.0
sF6081611000.0
F492.0
sF6085502201.0
F577.0
sF6085502202.0
F4769.0
sF6001435900.0
F1270.0
sF6085510400.0
F1648.0
sF6001444100.0
F1600.0
sF6095250701.0
F1052.0
sF6085506605.0
F366.0
sF6013355301.0
F816.0
sF6013355302.0
F160.0
sF6013355304.0
F987.0
sF6013355306.0
F366.0
sF6075016500.0
F1478.0
sF6041126200.0
F1891.0
sF6075032901.0
F358.0
sF6075032902.0
F517.0
sF6097151305.0
F1442.0
sF6097151306.0
F157.0
sF6097151307.0
F660.0
sF6097151308.0
F2181.0
sF6097151309.0
F393.0
sF6097151310.0
F1887.0
sF6097151311.0
F596.0
sF6095251000.0
F337.0
sF6081602900.0
F591.0
sF6001427800.0
F474.0
sF6081611100.0
F939.0
sF6085502301.0
F1292.0
sF6085502302.0
F365.0
sF6001436000.0
F102.0
sF6085510500.0
F1016.0
sF6001444200.0
F1289.0
sF6095250801.0
F2738.0
sF6013339001.0
F10455.0
sF6013339002.0
F15358.0
sF6041118100.0
F463.0
sF6075016600.0
F1798.0
sF6013380000.0
F5555.0
sF6001403300.0
F3162.0
sF6075033000.0
F1555.0
sF6097151401.0
F1004.0
sF6097151402.0
F4299.0
sF6081603000.0
F1117.0
sF6001427900.0
F732.0
sF6085502400.0
F1319.0
sF6001437600.0
F592.0
sF6001436100.0
F600.0
sF6085510600.0
F1592.0
sF6055200201.0
F1339.0
sF6055200202.0
F4699.0
sF6055200203.0
F681.0
sF6001444301.0
F2760.0
sF6001444302.0
F2903.0
sF6095250900.0
F1225.0
sF6055201700.0
F4115.0
sF6095980000.0
F53.0
sF6097150204.0
F2375.0
sF6075016700.0
F607.0
sF6001403400.0
F10380.0
sF6075033100.0
F883.0
sF6097151502.0
F1121.0
sF6097151503.0
F217.0
sF6097151504.0
F564.0
sF6081603100.0
F462.0
sF6001428000.0
F2564.0
sF6085502500.0
F895.0
sF6001436200.0
F534.0
sF6085510700.0
F4733.0
sF6055200301.0
F1653.0
sF6055200302.0
F291.0
sF6001444400.0
F278.0
sF6013301000.0
F218.0
sF6013331000.0
F1038.0
sF6041110100.0
F2654.0
sF6013372000.0
F519.0
sF6075016801.0
F636.0
sF6075016802.0
F1183.0
sF6001403501.0
F2432.0
sF6001403502.0
F377.0
sF6075033201.0
F7292.0
sF6097151602.0
F200.0
sF6075033203.0
F365.0
sF6075033204.0
F188.0
sF6081603200.0
F815.0
sF6001428100.0
F1281.0
sF6075060502.0
F214.0
sF6081611400.0
F1441.0
sF6085502601.0
F848.0
sF6085502603.0
F1106.0
sF6001436300.0
F1556.0
sF6055200400.0
F641.0
sF6085510801.0
F5369.0
sF6085510802.0
F482.0
sF6085510803.0
F800.0
sF6001444500.0
F1428.0
sF6095251100.0
F501.0
sF6085502800.0
F823.0
sF6097151601.0
F394.0
sF6041110200.0
F506.0
sF6075016900.0
F1311.0
sF6075025100.0
F1756.0
sF6001403600.0
F454.0
sF6097151700.0
F2090.0
sF6081603300.0
F664.0
sF6001428200.0
F568.0
sF6081611500.0
F809.0
sF6085502701.0
F2297.0
sF6085502702.0
F6226.0
sF6001436401.0
F965.0
sF6001436402.0
F202.0
sF6085510900.0
F457.0
sF6055200501.0
F3352.0
sF6055200503.0
F3657.0
sF6013323000.0
F679.0
sF6055200505.0
F146.0
sF6001444602.0
F4286.0
sF6095251200.0
F905.0
sF6041102100.0
F1001.0
sF6013364002.0
F582.0
sF6075017000.0
F1035.0
sF6075025200.0
F792.0
sF6001403701.0
F801.0
sF6001403702.0
F840.0
sF6097151800.0
F4167.0
sF6001420100.0
F663.0
sF6081603400.0
F276.0
sF6085502604.0
F6294.0
sF6001428301.0
F6010.0
sF6001428302.0
F694.0
sF6081611600.0
F170.0
sF6001436500.0
F1509.0
sF6085511000.0
F735.0
sF6001404900.0
F645.0
sF6055200602.0
F2175.0
sF6095251300.0
F325.0
sF6041102202.0
F1128.0
sF6041102203.0
F2605.0
sF6075017101.0
F312.0
sF6075017102.0
F780.0
sF6075025300.0
F1876.0
sF6001403800.0
F1181.0
sF6097151900.0
F768.0
sF6001420200.0
F703.0
sF6001428400.0
F1900.0
sF6081611700.0
F19278.0
sF6085502901.0
F682.0
sF6085502902.0
F1102.0
sF6085502903.0
F255.0
sF6013315000.0
F9159.0
sF6001436601.0
F345.0
sF6085502906.0
F473.0
sF6085502907.0
F359.0
sF6085502908.0
F675.0
sF6085502909.0
F842.0
sF6085502910.0
F1850.0
sF6055200703.0
F90.0
sF6055200704.0
F585.0
sF6055200705.0
F240.0
sF6055200706.0
F282.0
sF6055200707.0
F628.0
sF6095251400.0
F4181.0
sF6013356001.0
F167.0
sF6013356002.0
F202.0
sF6075025401.0
F351.0
sF6075025402.0
F177.0
sF6075025403.0
F219.0
sF6001403900.0
F886.0
sF6097152000.0
F5530.0
sF6013312000.0
F813.0
sF6001420300.0
F753.0
sF6001428500.0
F843.0
sF6081611800.0
F4178.0
sF6085503001.0
F467.0
sF6085503002.0
F940.0
sF6085503003.0
F855.0
sF6001436700.0
F579.0
sF6085511200.0
F607.0
sF6055200802.0
F970.0
sF6055200803.0
F281.0
sF6055200804.0
F536.0
sF6095251500.0
F2202.0
sF6085512200.0
F630.0
sF6097150304.0
F504.0
sF6041127000.0
F1764.0
sF6075025500.0
F967.0
sF6001404000.0
F7241.0
sF6097152100.0
F9089.0
sF6001420400.0
F636.0
sF6081603700.0
F362.0
sF6001428600.0
F184.0
sF6081611900.0
F871.0
sF6001436800.0
F2536.0
sF6085503105.0
F1908.0
sF6055200900.0
F3734.0
sF6085511301.0
F2641.0
sF6085503110.0
F908.0
sF6085503111.0
F373.0
sF6085503112.0
F728.0
sF6085503113.0
F337.0
sF6085503115.0
F1244.0
sF6085503116.0
F896.0
sF6085503117.0
F306.0
sF6085503118.0
F165.0
sF6095251600.0
F270.0
sF6085503121.0
F4237.0
sF6085503122.0
F8115.0
sF6085503123.0
F481.0
sF6013348000.0
F927.0
sF6085501300.0
F570.0
sF6075025600.0
F383.0
sF6001404101.0
F1326.0
sF6001404102.0
F877.0
sF6097152201.0
F643.0
sF6097152202.0
F1118.0
sF6097152203.0
F1562.0
sF6001420500.0
F639.0
sF6081603801.0
F54.0
sF6081603802.0
F383.0
sF6001428700.0
F3152.0
sF6013307101.0
F328.0
sF6013307102.0
F676.0
sF6081612000.0
F1037.0
sF6001436900.0
F501.0
sF6085503207.0
F185.0
sF6085503208.0
F144.0
sF6085503210.0
F473.0
sF6085503211.0
F474.0
sF6055201004.0
F266.0
sF6055201005.0
F7479.0
sF6055201006.0
F532.0
sF6055201007.0
F180.0
sF6085503217.0
F160.0
sF6085503218.0
F375.0
sF6095251701.0
F1489.0
sF6095251702.0
F103.0
sF6085508004.0
F465.0
sF6075025701.0
F1626.0
sF6075025702.0
F1028.0
sF6001404200.0
F1246.0
sF6097152300.0
F2782.0
sF6001420600.0
F525.0
sF6081603900.0
F1186.0
sF6013307201.0
F947.0
sF6013307202.0
F399.0
sF6081612100.0
F823.0
sF6013307205.0
F662.0
sF6001437000.0
F2861.0
sF6085503305.0
F3221.0
sF6085503306.0
F521.0
sF6085511500.0
F5956.0
sF6055201101.0
F196.0
sF6055201102.0
F1334.0
sF6085503312.0
F182.0
sF6085503313.0
F173.0
sF6085503315.0
F632.0
sF6085503321.0
F586.0
sF6085503322.0
F284.0
sF6085503323.0
F481.0
sF6085503324.0
F257.0
sF6085503325.0
F656.0
sF6085503326.0
F294.0
sF6085503327.0
F794.0
sF6013340001.0
F2066.0
sF6085503330.0
F1181.0
sF6085503331.0
F302.0
sF6085503332.0
F132.0
sF6085503333.0
F242.0
sF6085503334.0
F944.0
sF6085503336.0
F507.0
sF6085503337.0
F444.0
sF6041119100.0
F2131.0
sF6075017601.0
F36887.0
sF6013381000.0
F1157.0
sF6001404300.0
F309.0
sF6097152400.0
F4565.0
sF6001400900.0
F303.0
sF6081604000.0
F829.0
sF6085503401.0
F373.0
sF6085503402.0
F379.0
sF6001437101.0
F18888.0
sF6001437102.0
F330.0
sF6055201200.0
F1286.0
sF6085511608.0
F9576.0
sF6085511609.0
F9920.0
sF6095251901.0
F879.0
sF6095251902.0
F409.0
sF6095251903.0
F242.0
sF6055200504.0
F2140.0
sF6001444601.0
F1593.0
sF6041111000.0
F5822.0
sF6041119201.0
F3389.0
sF6041119202.0
F164.0
sF6075017700.0
F45595.0
sF6075025900.0
F837.0
sF6001404400.0
F259.0
sF6097152501.0
F482.0
sF6097152502.0
F413.0
sF6081604101.0
F1534.0
sF6081604102.0
F7598.0
sF6001437200.0
F2236.0
sF6085503506.0
F330.0
sF6085503507.0
F357.0
sF6055201300.0
F2133.0
sF6085511701.0
F668.0
sF6085503510.0
F711.0
sF6085503511.0
F403.0
sF6085511704.0
F1429.0
sF6085511705.0
F35470.0
sF6085511707.0
F1155.0
sF6013332000.0
F2045.0
sF6013373000.0
F201.0
sF6075017801.0
F11468.0
sF6075017802.0
F6593.0
sF6075026001.0
F577.0
sF6075026002.0
F898.0
sF6075026003.0
F190.0
sF6075026004.0
F388.0
sF6001404501.0
F105.0
sF6001404502.0
F1590.0
sF6097152600.0
F1079.0
sF6075980900.0
F11836.0
sF6081604200.0
F1024.0
sF6085503601.0
F1934.0
sF6085503602.0
F410.0
sF6001437300.0
F1620.0
sF6085511800.0
F351.0
sF6055201401.0
F2209.0
sF6055201402.0
F613.0
sF6055201403.0
F621.0
sF6095252102.0
F6288.0
sF6095252103.0
F93.0
sF6095252104.0
F592.0
sF6095252105.0
F244.0
sF6095252106.0
F506.0
sF6095252107.0
F238.0
sF6095252108.0
F548.0
sF6075017902.0
F682.0
sF6075026100.0
F815.0
sF6001404600.0
F394.0
sF6097152701.0
F748.0
sF6097152702.0
F8998.0
sF6081612500.0
F3765.0
sF6085503703.0
F560.0
sF6001437400.0
F233.0
sF6085503707.0
F368.0
sF6055201500.0
F3849.0
sF6085503709.0
F1032.0
sF6085503710.0
F540.0
sF6085503711.0
F240.0
sF6085503712.0
F2937.0
sF6013324001.0
F6893.0
sF6013324002.0
F3054.0
sF6085511907.0
F375.0
sF6085511909.0
F360.0
sF6085511910.0
F253.0
sF6085511911.0
F1214.0
sF6085511912.0
F240.0
sF6095252201.0
F4111.0
sF6085511914.0
F736.0
sF6085511915.0
F904.0
sF6085511916.0
F1193.0
sF6041103100.0
F431.0
sF6075021100.0
F834.0
sF6013365002.0
F1466.0
sF6013365003.0
F2793.0
sF6075018000.0
F17768.0
sF6081610201.0
F4450.0
sF6075026200.0
F600.0
sF6001404700.0
F384.0
sF6081610202.0
F15595.0
sF6001441925.0
F2968.0
sF6097152801.0
F3184.0
sF6097152802.0
F3028.0
sF6075060700.0
F17952.0
sF6075042602.0
F741.0
sF6001421100.0
F138.0
sF6081604400.0
F3144.0
sF6081612600.0
F5134.0
sF6085503802.0
F809.0
sF6085503803.0
F949.0
sF6001437500.0
F113.0
sF6055201601.0
F2149.0
sF6055201602.0
F2339.0
sF6085512005.0
F1209.0
sF6085512017.0
F672.0
sF6095252306.0
F573.0
sF6085512019.0
F303.0
sF6085512020.0
F487.0
sF6085512021.0
F413.0
sF6085512022.0
F322.0
sF6085512023.0
F375.0
sF6085512024.0
F910.0
sF6085512025.0
F346.0
sF6085512026.0
F631.0
sF6085512027.0
F3122.0
sF6095252316.0
F338.0
sF6095252317.0
F1758.0
sF6085512030.0
F228.0
sF6085512031.0
F165.0
sF6085512032.0
F4178.0
sF6085512033.0
F7507.0
sF6085512034.0
F377.0
sF6085512035.0
F140.0
sF6085512036.0
F265.0
sF6085512037.0
F253.0
sF6085512038.0
F46.0
sF6085512039.0
F422.0
sF6085512042.0
F225.0
sF6085512043.0
F302.0
sF6085512045.0
F586.0
sF6085512047.0
F895.0
sF6085512052.0
F2781.0
sF6085512053.0
F471.0
sF6075026301.0
F540.0
sF6075026302.0
F263.0
sF6075026303.0
F396.0
sF6001404800.0
F188.0
sF6097152903.0
F296.0
sF6097152904.0
F465.0
sF6097152905.0
F126.0
sF6097152906.0
F885.0
sF6075042700.0
F840.0
sF6001421200.0
F200.0
sF6081604500.0
F371.0
sF6081612700.0
F274.0
sF6085503902.0
F438.0
sF6085503903.0
F892.0
sF6013316000.0
F1464.0
sF6085512100.0
F1897.0
sF6095252401.0
F674.0
sF6095252402.0
F3832.0
sF6013357000.0
F864.0
sF6075026401.0
F283.0
sF6075026402.0
F225.0
sF6075026403.0
F611.0
sF6075026404.0
F142.0
sF6097153001.0
F3901.0
sF6097153002.0
F2295.0
sF6097153003.0
F1288.0
sF6097153005.0
F1478.0
sF6097153006.0
F1717.0
sF6075042800.0
F288.0
sF6041132200.0
F345.0
sF6001421300.0
F905.0
sF6081604600.0
F239.0
sF6081612800.0
F259.0
sF6085504001.0
F1244.0
sF6085504002.0
F439.0
sF6001437701.0
F170.0
sF6001437702.0
F110.0
sF6055201800.0
F185.0
sF6095252501.0
F1384.0
sF6095252502.0
F4265.0
sF6055200601.0
F1286.0
sF6075010100.0
F7735.0
sF6001405000.0
F476.0
sF6097153102.0
F375.0
sF6097153103.0
F316.0
sF6097153104.0
F924.0
sF6001421400.0
F153.0
sF6081604700.0
F223.0
sF6013308001.0
F1377.0
sF6013308002.0
F344.0
sF6081612900.0
F823.0
sF6085504101.0
F422.0
sF6085504102.0
F679.0
sF6001437800.0
F335.0
sF6055201900.0
F1127.0
sF6085512305.0
F280.0
sF6085512307.0
F862.0
sF6085512308.0
F907.0
sF6085512309.0
F441.0
sF6085512310.0
F2879.0
sF6085512311.0
F4081.0
sF6085512312.0
F403.0
sF6085512313.0
F1115.0
sF6085512314.0
F1444.0
sF6095252604.0
F3666.0
sF6095252605.0
F738.0
sF6095252606.0
F1122.0
sF6095252607.0
F171.0
sF6095252608.0
F170.0
sF6095252610.0
F37.0
sF6095252611.0
F186.0
sF6013349000.0
F2752.0
sF6075010200.0
F2176.0
sF6081608900.0
F1300.0
sF6041128100.0
F881.0
sF6001405100.0
F450.0
sF6097153200.0
F4834.0
sF6001421500.0
F204.0
sF6081604800.0
F886.0
sF6081613000.0
F5898.0
sF6085504201.0
F368.0
sF6085504202.0
F302.0
sF6001437900.0
F408.0
sF6055202000.0
F1710.0
sF6085512401.0
F1168.0
sF6085512402.0
F683.0
sF6095252702.0
F1123.0
sF6095252703.0
F355.0
sF6095252704.0
F425.0
sF6095252705.0
F204.0
sF6095252706.0
F47.0
sF6095252707.0
F499.0
sF6075010300.0
F839.0
sF6041120000.0
F1770.0
sF6041128200.0
F1050.0
sF6001405200.0
F498.0
sF6097153300.0
F4039.0
sF6001421600.0
F176.0
sF6081604900.0
F328.0
sF6001438000.0
F326.0
sF6085504307.0
F730.0
sF6085504308.0
F651.0
sF6085512503.0
F305.0
sF6085512505.0
F568.0
sF6085504314.0
F362.0
sF6085504315.0
F238.0
sF6085504316.0
F125.0
sF6085512509.0
F278.0
sF6085504318.0
F12408.0
sF6085504319.0
F1036.0
sF6085504320.0
F106.0
sF6085504321.0
F607.0
sF6085504322.0
F9771.0
sF6085504323.0
F794.0
sF6013341000.0
F767.0
sF6001435104.0
F523.0
sF6075010400.0
F2094.0
sF6013382000.0
F804.0
sF6001405301.0
F260.0
sF6001405302.0
F464.0
sF6013390200.0
F331.0
sF6097153401.0
F3660.0
sF6097153403.0
F1831.0
sF6097153404.0
F444.0
sF6081610304.0
F16376.0
sF6001421700.0
F1420.0
sF6081605000.0
F6736.0
sF6081613200.0
F1694.0
sF6001438100.0
F462.0
sF6085504410.0
F612.0
sF6085504411.0
F401.0
sF6085512604.0
F1527.0
sF6085504413.0
F473.0
sF6085504414.0
F1656.0
sF6085504415.0
F285.0
sF6085504416.0
F1149.0
sF6085504417.0
F48.0
sF6085504418.0
F581.0
sF6085504420.0
F307.0
sF6085504421.0
F510.0
sF6085504422.0
F649.0
sF6085504423.0
F66.0
sF6095252904.0
F4827.0
sF6095252908.0
F430.0
sF6095252909.0
F252.0
sF6095252910.0
F208.0
sF6095252911.0
F3341.0
sF6095252912.0
F1235.0
sF6095252913.0
F238.0
sF6095252914.0
F202.0
sF6095252915.0
F106.0
sF6075010500.0
F26098.0
sF6001405401.0
F303.0
sF6001405402.0
F353.0
sF6075035100.0
F638.0
sF6097153501.0
F497.0
sF6097153502.0
F513.0
sF6001421800.0
F434.0
sF6081605100.0
F14048.0
sF6081613300.0
F960.0
sF6085504504.0
F13262.0
sF6001438201.0
F211.0
sF6085504506.0
F1921.0
sF6001438203.0
F8032.0
sF6001438204.0
F615.0
sF6095253000.0
F2284.0
sF6041112100.0
F2423.0
sF6075010600.0
F3363.0
sF6013374000.0
F936.0
sF6001405500.0
F217.0
sF6097153600.0
F1086.0
sF6075035201.0
F517.0
sF6075035202.0
F455.0
sF6001421900.0
F553.0
sF6081605200.0
F197.0
sF6001430101.0
F735.0
sF6001430102.0
F296.0
sF6081613400.0
F1217.0
sF6085504601.0
F38705.0
sF6085504602.0
F33610.0
sF6001438300.0
F161.0
sF6001436602.0
F724.0
sF6013386000.0
F1594.0
sF6085511100.0
F622.0
sF6013333101.0
F454.0
sF6013333102.0
F472.0
sF6095253105.0
F1398.0
sF6095253106.0
F219.0
sF6095253107.0
F1185.0
sF6095253108.0
F629.0
sF6013390100.0
F129.0
sF6041112201.0
F90.0
sF6041112202.0
F7513.0
sF6075010700.0
F2599.0
sF6001405600.0
F199.0
sF6075035300.0
F1325.0
sF6097153703.0
F372.0
sF6097153704.0
F1131.0
sF6097153705.0
F657.0
sF6097153706.0
F852.0
sF6001422000.0
F13498.0
sF6081605300.0
F590.0
sF6001430200.0
F913.0
sF6085504700.0
F1734.0
sF6081613501.0
F1049.0
sF6081613502.0
F884.0
sF6001438400.0
F2321.0
sF6013325000.0
F1844.0
sF6013333200.0
F770.0
sF6095253201.0
F603.0
sF6095253203.0
F924.0
sF6095253204.0
F493.0
sF6095253205.0
F980.0
sF6095253206.0
F399.0
sF6041104101.0
F1745.0
sF6041104102.0
F1204.0
sF6075010800.0
F444.0
sF6013366001.0
F293.0
sF6013366002.0
F290.0
sF6001405700.0
F2514.0
sF6075035400.0
F512.0
sF6097153801.0
F1309.0
sF6097153804.0
F208.0
sF6097153806.0
F670.0
sF6097153807.0
F373.0
sF6097153808.0
F2470.0
sF6097153809.0
F589.0
sF6001422100.0
F424.0
sF6081605400.0
F5485.0
sF6001430300.0
F213.0
sF6081613600.0
F696.0
sF6085504802.0
F3413.0
sF6085504803.0
F1467.0
sF6085504805.0
F470.0
sF6085504806.0
F265.0
sF6081610000.0
F1286.0
sF6085513000.0
F681.0
sF6095253300.0
F2430.0
sF6001442100.0
F410.0
sF6041104200.0
F604.0
sF6085504311.0
F1074.0
sF6075010900.0
F1370.0
sF6085512506.0
F889.0
sF6001405800.0
F176.0
sF6085512508.0
F651.0
sF6097153901.0
F1191.0
sF6097153902.0
F4595.0
sF6085504317.0
F507.0
sF6085512510.0
F1030.0
sF6001422200.0
F710.0
sF6081605500.0
F4154.0
sF6001430400.0
F313.0
sF6075060100.0
F5038.0
sF6085504901.0
F2956.0
sF6095252801.0
F129.0
sF6013317000.0
F3853.0
sF6095252802.0
F760.0
sF6095253402.0
F1937.0
sF6095253403.0
F356.0
sF6095253404.0
F729.0
sF6041104300.0
F1505.0
sF6013358000.0
F1003.0
sF6075011000.0
F1278.0
sF6081610400.0
F485.0
sF6001405901.0
F372.0
sF6001405902.0
F240.0
sF6097154000.0
F1069.0
sF6075016300.0
F483.0
sF6001422300.0
F4128.0
sF6081605600.0
F1208.0
sF6001430500.0
F1444.0
sF6081613800.0
F1276.0
sF6085505001.0
F26535.0
sF6085505006.0
F57353.0
sF6085505007.0
F8319.0
sF6085505008.0
F13024.0
sF6085505009.0
F5969.0
sF6095253500.0
F1086.0
sF6075011100.0
F3050.0
sF6041129000.0
F222.0
sF6001406000.0
F3751.0
sF6097154100.0
F3238.0
sF6001422400.0
F1642.0
sF6081605700.0
F519.0
sF6013309000.0
F1517.0
sF6095250103.0
F296.0
sF6081613900.0
F987.0
sF6095250104.0
F234.0
sF6013350000.0
F4509.0
sF6075011200.0
F1192.0
sF6001432600.0
F4452.0
sF6001406100.0
F3339.0
sF6013391000.0
F1300.0
sF6097154201.0
F960.0
sF6097154202.0
F954.0
sF6075022704.0
F1326.0
sF6001422500.0
F440.0
sF6081605800.0
F208.0
sF6001430700.0
F386.0
sF6081614000.0
F963.0
sF6085505202.0
F36579.0
sF6085505203.0
F3907.0
sF6075011300.0
F1645.0
sF6001406201.0
F269.0
sF6001406202.0
F860.0
sF6097154302.0
F1102.0
sF6097154303.0
F233.0
sF6097154304.0
F281.0
sF6001422600.0
F11615.0
sF6081605900.0
F864.0
sF6001430800.0
F514.0
sF6085505301.0
F124.0
sF6085505302.0
F618.0
sF6085505303.0
F408.0
sF6085505304.0
F416.0
sF6085505305.0
F1214.0
sF6085513500.0
F107.0
sF6081609100.0
F9217.0
sF6041121100.0
F2864.0
sF6013383000.0
F1181.0
sF6001406300.0
F391.0
sF6001422700.0
F291.0
sF6081606000.0
F1374.0
sF6001430900.0
F2956.0
sF6085505401.0
F994.0
sF6085505402.0
F543.0
sF6085505403.0
F820.0
sF6085508504.0
F1328.0
sF6085512602.0
F4318.0
sF6085512603.0
F1265.0
sF6041113000.0
F464.0
sF6085504412.0
F748.0
sF6041121200.0
F6648.0
sF6001406400.0
F890.0
sF6001422800.0
F1640.0
sF6081606100.0
F579.0
sF6001431000.0
F1363.0
sF6085505500.0
F1121.0
sF6095252903.0
F648.0
sF6013334001.0
F419.0
sF6013334004.0
F1374.0
sF6013334006.0
F205.0
sF6013375000.0
F148.0
sF6085501700.0
F3284.0
sF6001406500.0
F429.0
sF6085505800.0
F4107.0
sF6001422900.0
F7474.0
sF6081606200.0
F902.0
sF6001431100.0
F674.0
sF6085505600.0
F1236.0
sF6041105000.0
F6836.0
sF6075011700.0
F76370.0
sF6001406601.0
F267.0
sF6001406602.0
F365.0
sF6001423000.0
F1522.0
sF6081606300.0
F6696.0
sF6001431200.0
F1134.0
sF6085505700.0
F702.0
sF6013326000.0
F265.0
sF6013334200.0
F1973.0
sF6085511905.0
F665.0
sF6075011800.0
F4090.0
sF6001406700.0
F805.0
sF6001423100.0
F899.0
sF6081606400.0
F1505.0
sF6075061000.0
F797.0
sF6085503108.0
F1755.0
sF6085511302.0
F14532.0
sF6013367100.0
F418.0
sF6075011901.0
F372.0
sF6075011902.0
F1254.0
sF6075020100.0
F4184.0
sF6001406800.0
F376.0
sF6081610302.0
F8032.0
sF6001423200.0
F1007.0
sF6081606500.0
F575.0
sF6085505900.0
F2106.0
sF6013318000.0
F4521.0
sF6013367200.0
F1097.0
sF6075020200.0
F1793.0
sF6001406900.0
F321.0
sF6001423300.0
F332.0
sF6081606600.0
F2839.0
sF6075061200.0
F1105.0
sF6085504505.0
F2439.0
sF6085504507.0
F1152.0
sF6013359102.0
F741.0
sF6013359103.0
F888.0
sF6013359104.0
F86.0
sF6013359105.0
F185.0
sF6075012100.0
F3475.0
sF6075020300.0
F1697.0
sF6001407000.0
F2214.0
sF6001423400.0
F480.0
sF6081606700.0
F2739.0
sF6013310000.0
F739.0
sF6085506101.0
F266.0
sF6085506102.0
F519.0
sF6085506103.0
F1533.0
sF6013359202.0
F338.0
sF6013359203.0
F563.0
sF6013359204.0
F538.0
sF6075012201.0
F587.0
sF6075012202.0
F606.0
sF6075020401.0
F139.0
sF6075020402.0
F144.0
sF6001407101.0
F114.0
sF6001407102.0
F248.0
sF6013392000.0
F260.0
sF6075061100.0
F14047.0
sF6001423500.0
F1387.0
sF6081606800.0
F2250.0
sF6075061400.0
F676.0
sF6085506202.0
F2095.0
sF6085506203.0
F2443.0
sF6085506204.0
F1042.0
sF6013351101.0
F35.0
sF6013351102.0
F332.0
sF6013351103.0
F225.0
sF6075012301.0
F4275.0
sF6075012302.0
F2913.0
sF6041122000.0
I0
sF6075020500.0
F1009.0
sF6041130201.0
F702.0
sF6041130202.0
F4340.0
sF6001407200.0
F943.0
sF6075045100.0
F691.0
sF6001423601.0
F1441.0
sF6001423602.0
F479.0
sF6081606900.0
F245.0
sF6013302005.0
F1247.0
sF6013302006.0
F222.0
sF6013302007.0
F526.0
sF6013302008.0
F494.0
sF6013302009.0
F1369.0
sF6013302010.0
F809.0
sF6075061500.0
F115985.0
sF6085506301.0
F1907.0
sF6085506302.0
F930.0
sF6085506304.0
F1407.0
sF6085506305.0
F770.0
sF6013343001.0
F1001.0
sF6013343002.0
F1326.0
sF6013343003.0
F203.0
sF6013351200.0
F474.0
sF6075012401.0
F1314.0
sF6075012402.0
F5434.0
sF6075020600.0
F930.0
sF6085509302.0
F2320.0
sF6013384000.0
F342.0
sF6001407300.0
F2839.0
sF6013392200.0
F2222.0
sF6075045200.0
F649.0
sF6001423700.0
F582.0
sF6081607000.0
F112.0
sF6085503204.0
F548.0
sF6085506401.0
F4743.0
sF6085506402.0
F1084.0
sF6001440100.0
F553.0
sF6085511400.0
F598.0
sF6055201003.0
F1176.0
sF6085503212.0
F675.0
sF6085503213.0
F271.0
sF6075012501.0
F2774.0
sF6075012502.0
F1062.0
sF6075020700.0
F1676.0
sF6001407400.0
F372.0
sF6013392300.0
F2742.0
sF6001423800.0
F749.0
sF6081607100.0
F184.0
sF6075012000.0
F2036.0
sF6085506501.0
F823.0
sF6085506502.0
F8326.0
sF6085506503.0
F1812.0
sF6001440200.0
F550.0
sF6013335000.0
F689.0
sF6041114100.0
F1373.0
sF6075012601.0
F563.0
sF6075012602.0
F1350.0
sF6013376000.0
F1614.0
sF6001407500.0
F380.0
sF6001423901.0
F834.0
sF6001423902.0
F3049.0
sF6081607200.0
F2543.0
sF6001432100.0
F410.0
sF6085506601.0
F1221.0
sF6085506603.0
F186.0
sF6085506604.0
F1521.0
sF6001440301.0
F8364.0
sF6085506606.0
F737.0
sF6001440304.0
F495.0
sF6001440305.0
F114.0
sF6001440306.0
F956.0
sF6001440307.0
F822.0
sF6001440308.0
F1753.0
sF6001442400.0
F418.0
sF6001440331.0
F1311.0
sF6001440332.0
F168.0
sF6001440333.0
F5441.0
sF6001440334.0
F296.0
sF6001440335.0
F1702.0
sF6001440336.0
F190.0
sF6041106001.0
F6085.0
sF6041106002.0
F3893.0
sF6041114200.0
F375.0
sF6075012700.0
F489.0
sF6075020900.0
F2268.0
sF6001407600.0
F347.0
sF6001424001.0
F567.0
sF6001424002.0
F224.0
sF6081607300.0
F319.0
sF6001432200.0
F655.0
sF6085506701.0
F208.0
sF6085506702.0
F293.0
sF6085506703.0
F1834.0
sF6013327000.0
F14835.0
sF6075012800.0
F2568.0
sF6013368001.0
F231.0
sF6013368002.0
F284.0
sF6075021000.0
F751.0
sF6081610700.0
F1140.0
sF6001407700.0
F144.0
sF6085506000.0
F291.0
sF6081607400.0
F2849.0
sF6001432300.0
F1172.0
sF6085506801.0
F2628.0
sF6085506802.0
F1222.0
sF6085506803.0
F567.0
sF6085506804.0
F264.0
sF6013389100.0
F1220.0
sF6075012901.0
F386.0
sF6075012902.0
F911.0
sF6081984300.0
F7044.0
sF6085503214.0
F1562.0
sF6001407800.0
F759.0
sF6081607500.0
F3651.0
sF6001432400.0
F9725.0
sF6085506900.0
F1211.0
sF6013319000.0
F3487.0
sF6075013000.0
F2967.0
sF6075021200.0
F460.0
sF6013307204.0
F215.0
sF6001407900.0
F249.0
sF6081607600.0
F4027.0
sF6085503304.0
F2004.0
sF6001432501.0
F1489.0
sF6001432502.0
F164.0
sF6085507001.0
F4287.0
sF6085507002.0
F323.0
sF6013360101.0
F699.0
sF6013360102.0
F203.0
sF6075013101.0
F602.0
sF6075013102.0
F929.0
sF6075021300.0
F184.0
sF6001408000.0
F851.0
sF6081607701.0
F417.0
sF6081607702.0
F158.0
sF6013311000.0
F1214.0
sF6085507100.0
F1582.0
sF6095251802.0
F3036.0
sF6075047600.0
F763.0
sF6095251803.0
F386.0
sF6095251804.0
F68.0
sF6085503329.0
F350.0
sF6013360200.0
F463.0
sF6013340002.0
F1051.0
sF6075013200.0
F1144.0
sF6081609400.0
F320.0
sF6075021400.0
F970.0
sF6041131100.0
F748.0
sF6001408100.0
F915.0
sF6081607800.0
F422.0
sF6001432700.0
F239.0
sF6085507203.0
F3878.0
sF6085507205.0
F835.0
sF6085507206.0
F264.0
sF6013352101.0
F1409.0
sF6013352102.0
F633.0
sF6075013300.0
F3742.0
sF6041123000.0
F397.0
sF6075021500.0
F748.0
sF6001408200.0
F152.0
sF6081607900.0
F9345.0
sF6001432800.0
F747.0
sF6085507301.0
F1700.0
sF6085507302.0
F1032.0
sF6013352201.0
F1129.0
sF6013352202.0
F781.0
sF6075013400.0
F834.0
sF6075021600.0
F225.0
sF6001400100.0
F869.0
sF6001408300.0
F310.0
sF6075025800.0
F124.0
sF6013303102.0
F1204.0
sF6013303103.0
F4158.0
sF6081608001.0
F362.0
sF6081608002.0
F191.0
sF6081608004.0
F15567.0
sF6085507401.0
F792.0
sF6085507402.0
F1167.0
sF6001441100.0
F379.0
sF6081608013.0
F82.0
sF6013314104.0
F389.0
sF6081608023.0
F457.0
sF6013389200.0
F260.0
sF6041115000.0
F863.0
sF6075013500.0
F4494.0
sF6075021700.0
F798.0
sF6001400200.0
F1206.0
sF6013385100.0
F219.0
sF6001408400.0
F222.0
sF6013303201.0
F2380.0
sF6013303202.0
F598.0
sF6013303203.0
F1636.0
sF6081608100.0
F162.0
sF6013303205.0
F908.0
sF6075980200.0
F226.0
sF6085507500.0
F889.0
sF6001441200.0
F455.0
sF6001981900.0
F440.0
sF6013303204.0
F360.0
sF6001450746.0
F2385.0
sF6013377000.0
F897.0
sF6001400300.0
F1601.0
sF6013385200.0
F52.0
sF6001433000.0
F432.0
sF6001408500.0
F404.0
sF6001450750.0
F693.0
sF6001450751.0
F450.0
sF6001450752.0
F2391.0
sF6081608200.0
F457.0
sF6075980300.0
F1326.0
sF6001433102.0
F1950.0
sF6001433103.0
F587.0
sF6085507600.0
F721.0
sF6001441301.0
F126.0
sF6001441302.0
F681.0
sF6013336101.0
F375.0
sF6013336102.0
F337.0
sF6001982000.0
F1159.0
sF6041107000.0
F607.0
sF6001400400.0
F892.0
sF6075030101.0
F711.0
sF6075030102.0
F7599.0
sF6001408600.0
F679.0
sF6081600100.0
F5941.0
sF6081608300.0
F203.0
sF6001433200.0
F5298.0
sF6075980401.0
I0
sF6085507701.0
F3034.0
sF6085507702.0
F465.0
sF6085507703.0
F979.0
sF6001441401.0
F690.0
sF6001441402.0
F201.0
sF6013328000.0
F8671.0
sF6013336201.0
F102.0
sF6013336202.0
F528.0
sF6081609000.0
F799.0
sF6013369001.0
F2780.0
sF6013369002.0
F607.0
sF6001400500.0
F367.0
sF6075030201.0
F520.0
sF6075030202.0
F1425.0
sF6001408700.0
F586.0
sF6081600200.0
F751.0
sF6001425101.0
F4156.0
sF6001425102.0
F3436.0
sF6001425103.0
F5517.0
sF6001425104.0
F5720.0
sF6001433300.0
F5174.0
sF6075980501.0
F225.0
sF6085507805.0
F1152.0
sF6085507806.0
F1865.0
sF6085507807.0
F531.0
sF6085507808.0
F685.0
sF6097151100.0
F764.0
sF6001441521.0
F518.0
sF6001441522.0
F199.0
sF6001441523.0
F124.0
sF6001441524.0
F235.0
sF6001400600.0
F259.0
sF6075030301.0
F415.0
sF6075030302.0
F236.0
sF6001408800.0
F1505.0
sF6081600300.0
F121.0
sF6081608501.0
F1677.0
sF6081608502.0
F282.0
sF6075980600.0
F50.0
sF6085507903.0
F372.0
sF6085507904.0
F301.0
sF6013320001.0
F2900.0
sF6085507906.0
F158.0
sF6013320003.0
F1295.0
sF6013320004.0
F1644.0
sF6013361000.0
F398.0
sF6075021800.0
F656.0
sF6013306004.0
F644.0
sF6001400700.0
F761.0
sF6075030400.0
F676.0
sF6001408900.0
F901.0
sF6081600401.0
F92.0
sF6081600402.0
F132.0
sF6081608600.0
F1711.0
sF6001433500.0
F263.0
sF6085508001.0
F5359.0
sF6085508003.0
F1109.0
sF6001441700.0
F1602.0
sF6081609300.0
F631.0
sF6001400800.0
F925.0
sF6075030500.0
F209.0
sF6001409000.0
F19962.0
sF6081600500.0
F483.0
sF6081608700.0
F1898.0
sF6001433600.0
F933.0
sF6085508101.0
F25824.0
sF6085508102.0
F5456.0
sF6001441800.0
F982.0
sF6013353001.0
F349.0
sF6013353002.0
F913.0
sF6041132100.0
F444.0
sF6075030600.0
F698.0
sF6001409100.0
F103.0
sF6081600600.0
F1994.0
sF6081608800.0
F334.0
sF6085503504.0
F594.0
sF6001433700.0
F1341.0
sF6085503804.0
F1337.0
sF6085508202.0
F1106.0
sF6085508203.0
F408.0
sF6085508204.0
F234.0
sF6001450101.0
F3166.0
sF6001450102.0
F1988.0
sF6085503508.0
F300.0
sF6085503509.0
F327.0
sF6001441921.0
F296.0
sF6001441923.0
F7508.0
sF6001441924.0
F2601.0
sF6085511702.0
F178.0
sF6001441926.0
F170.0
sF6001441927.0
F3130.0
sF6097153903.0
F484.0
sF6001401000.0
F3716.0
sF6075030700.0
F323.0
sF6001409200.0
F306.0
sF6081600700.0
F760.0
sF6013304001.0
F707.0
sF6013304002.0
F503.0
sF6013304003.0
F312.0
sF6085500100.0
F6190.0
sF6013304005.0
F494.0
sF6001433800.0
F513.0
sF6085508301.0
F1344.0
sF6085508303.0
F658.0
sF6085508304.0
F732.0
sF6001450200.0
F207.0
sF6013304004.0
F234.0
sF6001430600.0
F286.0
sF6041124100.0
F671.0
sF6075022600.0
F5403.0
sF6001401100.0
F1581.0
sF6075030800.0
F1687.0
sF6001409300.0
F983.0
sF6081613700.0
F4007.0
sF6081600800.0
F1385.0
sF6085500200.0
F19461.0
sF6001433900.0
F352.0
sF6085508401.0
F1389.0
sF6085508403.0
F1061.0
sF6085508404.0
F1092.0
sF6001450300.0
F4497.0
sF6075032801.0
F924.0
sF6001442000.0
F434.0
sF6013345101.0
F435.0
sF6013345102.0
F371.0
sF6013345103.0
F449.0
sF6013345105.0
F2914.0
sF6013345108.0
F18244.0
sF6013345111.0
F5235.0
sF6013345112.0
F291.0
sF6013345113.0
F383.0
sF6013345114.0
F450.0
sF6013345115.0
F539.0
sF6013345116.0
F358.0
sF6041116000.0
F437.0
sF6041124200.0
F1388.0
sF6075022702.0
F1139.0
sF6001401200.0
F1002.0
sF6075030900.0
F1115.0
sF6001409400.0
F819.0
sF6085507905.0
F1190.0
sF6081600900.0
F431.0
sF6085500300.0
F5519.0
sF6001434000.0
F487.0
sF6085508503.0
F1664.0
sF6001442200.0
F2429.0
sF6085508505.0
F471.0
sF6085508507.0
F472.0
sF6085508508.0
F178.0
sF6001450400.0
F3841.0
sF6013345202.0
F5040.0
sF6013345203.0
F5394.0
sF6013345204.0
F1686.0
sF6013378000.0
F5483.0
sF6075022801.0
F5730.0
sF6075022802.0
F401.0
sF6075022803.0
F665.0
sF6001401300.0
F6220.0
sF6075031000.0
F620.0
sF6001409500.0
F639.0
sF6081601000.0
F266.0
sF6085500400.0
F2066.0
sF6081609201.0
F1905.0
sF6081609202.0
F1564.0
sF6085508601.0
F1121.0
sF6085508602.0
F4205.0
sF6001442301.0
F780.0
sF6001442302.0
F1361.0
sF6001450501.0
F1370.0
sF6001450502.0
F608.0
sF6013337100.0
F297.0
sF6075022901.0
F393.0
sF6075022902.0
F334.0
sF6075022903.0
F586.0
sF6001401400.0
F685.0
sF6075031100.0
F2449.0
sF6001409600.0
F249.0
sF6081601100.0
F257.0
sF6085500500.0
F2687.0
sF6085508703.0
F462.0
sF6085508704.0
F20213.0
sF6013329000.0
F1647.0
sF6001450601.0
F629.0
sF6001450602.0
F11427.0
sF6001450603.0
F4536.0
sF6001450604.0
F659.0
sF6001450605.0
F880.0
sF6001450606.0
F810.0
sF6001450607.0
F6523.0
sF6013337200.0
F3011.0
sF6041108100.0
F1504.0
sF6013370000.0
F316.0
sF6075023001.0
F938.0
sF6075023003.0
F247.0
sF6001401500.0
F495.0
sF6075031201.0
F637.0
sF6075031202.0
F300.0
sF6001409700.0
F191.0
sF6081601200.0
F1881.0
sF6041133000.0
F1608.0
sF6001426100.0
F861.0
sF6085500600.0
F2877.0
sF6085508800.0
F300.0
sF6001442500.0
F1238.0
sF6095253101.0
F3078.0
sF6001450701.0
F1418.0
sF6013337300.0
F816.0
sF6001983200.0
F5065.0
sF6041108200.0
F4614.0
sF6001450741.0
F1539.0
sF6001450742.0
F204.0
sF6001450743.0
F16639.0
sF6001450744.0
F1371.0
sF6001450745.0
F709.0
sF6001435800.0
F417.0
sF6075023102.0
F570.0
sF6075023103.0
F605.0
sF6001401600.0
F1114.0
sF6075031301.0
F219.0
sF6075031302.0
F385.0
sF6001409800.0
F414.0
sF6081601300.0
F1108.0
sF6075047701.0
F877.0
sF6075047702.0
F792.0
sF6001426200.0
F719.0
sF6081609500.0
F473.0
sF6085508900.0
F259.0
sF6001442601.0
F184.0
sF6001442602.0
F271.0
sF6081601501.0
F391.0
sF6075047902.0
F273.0
sF6013362000.0
F262.0
sF6075023200.0
F1661.0
sF6001401700.0
F2993.0
sF6075031400.0
F335.0
sF6001409900.0
F601.0
sF6081601400.0
F2344.0
sF6075047801.0
F583.0
sF6075047802.0
F407.0
sF6085500800.0
F18352.0
sF6081609601.0
F228.0
sF6081609602.0
F125.0
sF6081609603.0
F363.0
sF6085509000.0
F781.0
sF6001442700.0
F460.0
sF6013321101.0
F1891.0
sF6013321102.0
F305.0
sF6013321103.0
F481.0
sF6097151301.0
F682.0
sF6001442800.0
F928.0
sF6075015100.0
F3028.0
sF6075023300.0
F1739.0
sF6001401800.0
F186.0
sF6001410000.0
F1173.0
sF6075047901.0
F1455.0
sF6081601502.0
F680.0
sF6081609700.0
F327.0
sF6085500901.0
F10041.0
sF6085500902.0
F315.0
sF6085509102.0
F9124.0
sF6013321200.0
F2292.0
sF6085509105.0
F2376.0
sF6085509106.0
F940.0
sF6085509107.0
F189.0
sF6085509108.0
F12664.0
sF6085509109.0
F4404.0
s.