(dp0
F6013354001.0
F793.0
sF6013354002.0
F2088.0
sF6075015200.0
F2014.0
sF6075023400.0
F1750.0
sF6001410100.0
F1061.0
sF6081601601.0
F1550.0
sF6081601603.0
F2863.0
sF6081601604.0
F1486.0
sF6081601605.0
F3253.0
sF6081609800.0
F2215.0
sF6013313101.0
F2789.0
sF6013313102.0
F1612.0
sF6013313103.0
F3280.0
sF6085509201.0
F2498.0
sF6085509202.0
F2305.0
sF6001442900.0
F3584.0
sF6001451101.0
F3214.0
sF6001451102.0
F1835.0
sF6075015300.0
F1152.0
sF6041125000.0
F1459.0
sF6097150100.0
F842.0
sF6001410200.0
F1287.0
sF6081601700.0
F2341.0
sF6013305000.0
F2319.0
sF6081609900.0
F1436.0
sF6085501101.0
F2026.0
sF6085501102.0
F2046.0
sF6013313203.0
F1332.0
sF6013313204.0
F2075.0
sF6013313205.0
F730.0
sF6013313206.0
F2137.0
sF6085509303.0
F1731.0
sF6085509304.0
F1839.0
sF6001443001.0
F1407.0
sF6001443002.0
F2917.0
sF6001451201.0
F3371.0
sF6001451202.0
F2249.0
sF6081608400.0
F2784.0
sF6075015400.0
F3015.0
sF6013387000.0
F1378.0
sF6097150202.0
F1771.0
sF6097150203.0
F1606.0
sF6001410300.0
F1224.0
sF6081601800.0
F3136.0
sF6085501200.0
F1817.0
sF6095252000.0
F1805.0
sF6085509401.0
F1751.0
sF6085509403.0
F2148.0
sF6085509404.0
F2785.0
sF6001443102.0
F2298.0
sF6001443103.0
F2040.0
sF6001443104.0
F2539.0
sF6001443105.0
F2259.0
sF6001451300.0
F3260.0
sF6085503708.0
F1419.0
sF6001441501.0
F2959.0
sF6013346101.0
F1340.0
sF6013346102.0
F2057.0
sF6001441503.0
F2823.0
sF6085503713.0
F1134.0
sF6041117000.0
F1895.0
sF6075015500.0
F1689.0
sF6001402200.0
F1206.0
sF6097150303.0
F1258.0
sF6001410400.0
F1656.0
sF6097150305.0
F2028.0
sF6097150306.0
F1360.0
sF6075040100.0
F2078.0
sF6081601901.0
F2198.0
sF6081601902.0
F3046.0
sF6081610100.0
F1242.0
sF6085511913.0
F1959.0
sF6085509500.0
F2662.0
sF6095252202.0
F3848.0
sF6001443200.0
F1658.0
sF6001451401.0
F2765.0
sF6001451403.0
F1206.0
sF6001451404.0
F2824.0
sF6013346201.0
F2701.0
sF6013346203.0
F1555.0
sF6013346204.0
F2868.0
sF6075015600.0
F1500.0
sF6085501000.0
F2008.0
sF6013379000.0
F2221.0
sF6001410500.0
F949.0
sF6075040200.0
F2522.0
sF6085505100.0
F2143.0
sF6081602000.0
F4154.0
sF6085501401.0
F1281.0
sF6085501402.0
F1206.0
sF6081610203.0
F1251.0
sF6001435102.0
F2160.0
sF6001435103.0
F3285.0
sF6085509600.0
F1867.0
sF6001443301.0
F1982.0
sF6001451501.0
F2344.0
sF6001451503.0
F2822.0
sF6001451504.0
F968.0
sF6001451505.0
F1814.0
sF6001451506.0
F1543.0
sF6013338101.0
F1972.0
sF6013338102.0
F1490.0
sF6001443321.0
F1714.0
sF6001443322.0
F1531.0
sF6041109001.0
F1673.0
sF6041109002.0
F1704.0
sF6075015700.0
F3239.0
sF6001402400.0
F1164.0
sF6097150500.0
F1315.0
sF6081602100.0
F1618.0
sF6085501501.0
F1623.0
sF6085501502.0
F1809.0
sF6081610303.0
F3517.0
sF6001435200.0
F2043.0
sF6085509700.0
F1617.0
sF6013330000.0
F2285.0
sF6001451601.0
F2478.0
sF6001451602.0
F2970.0
sF6013338201.0
F1758.0
sF6013338203.0
F2167.0
sF6013338204.0
F2411.0
sF6013371000.0
F2459.0
sF6075015801.0
F1936.0
sF6075015802.0
F1670.0
sF6081611200.0
F1488.0
sF6001402500.0
F794.0
sF6097150601.0
F1736.0
sF6097150602.0
F1921.0
sF6097150603.0
F2864.0
sF6097150607.0
F2209.0
sF6097150609.0
F1788.0
sF6097150610.0
F1700.0
sF6097150611.0
F1694.0
sF6097150612.0
F1877.0
sF6081602200.0
F3427.0
sF6001427100.0
F1707.0
sF6085501600.0
F2646.0
sF6001435300.0
F2027.0
sF6085509801.0
F2472.0
sF6085509802.0
F1402.0
sF6001451701.0
F1545.0
sF6001433104.0
F1850.0
sF6001451703.0
F1978.0
sF6001451704.0
F2142.0
sF6095250105.0
F2718.0
sF6095250106.0
F1898.0
sF6013338301.0
F1210.0
sF6013338302.0
F2319.0
sF6075015900.0
F2048.0
sF6001402600.0
F577.0
sF6097150701.0
F1912.0
sF6097150702.0
F1996.0
sF6075042601.0
F1911.0
sF6081602300.0
F2270.0
sF6001427200.0
F2084.0
sF6081610500.0
F1950.0
sF6001435400.0
F2029.0
sF6085509901.0
F981.0
sF6085509902.0
F2128.0
sF6013322000.0
F2507.0
sF6095250200.0
F1822.0
sF6041101100.0
F1066.0
sF6013363000.0
F3040.0
sF6075016000.0
F1383.0
sF6001402700.0
F896.0
sF6097150800.0
F2007.0
sF6001433400.0
F3116.0
sF6081602400.0
F3460.0
sF6001427300.0
F2432.0
sF6085501800.0
F2394.0
sF6081610601.0
F1905.0
sF6081610602.0
F1520.0
sF6001435500.0
F1667.0
sF6085510001.0
F2399.0
sF6085510002.0
F1539.0
sF6095250300.0
F1394.0
sF6001441601.0
F2231.0
sF6001441602.0
F3116.0
sF6041101200.0
F1449.0
sF6075016100.0
F2432.0
sF6001402800.0
F1834.0
sF6097150901.0
F2207.0
sF6097150902.0
F1453.0
sF6081602500.0
F2722.0
sF6085501900.0
F2721.0
sF6001435601.0
F2041.0
sF6001435602.0
F2263.0
sF6085510100.0
F1225.0
sF6095250400.0
F1240.0
sF6095252305.0
F1924.0
sF6075020800.0
F3306.0
sF6095252310.0
F1259.0
sF6075016200.0
F1904.0
sF6095252311.0
F1755.0
sF6095252312.0
F1323.0
sF6001402900.0
F834.0
sF6095252313.0
F1970.0
sF6097151000.0
F1531.0
sF6075032601.0
F2357.0
sF6075032602.0
F2116.0
sF6095252314.0
F1698.0
sF6075060400.0
F975.0
sF6095252315.0
F1763.0
sF6081602600.0
F4384.0
sF6085512029.0
F3277.0
sF6081610800.0
F1949.0
sF6085502001.0
F2477.0
sF6085502002.0
F2052.0
sF6001435700.0
F2233.0
sF6013314102.0
F2185.0
sF6013314103.0
F1949.0
sF6085510200.0
F1645.0
sF6041103200.0
F2701.0
sF6095250501.0
F927.0
sF6095250502.0
F1365.0
sF6085512001.0
F3175.0
sF6013355107.0
F2236.0
sF6013355108.0
F5146.0
sF6013355109.0
F2569.0
sF6013355110.0
F1702.0
sF6013355111.0
F2508.0
sF6013355112.0
F2111.0
sF6013355113.0
F2144.0
sF6013355114.0
F4550.0
sF6013355115.0
F2534.0
sF6013355116.0
F2803.0
sF6013355117.0
F3122.0
sF6001403000.0
F1186.0
sF6075032700.0
F3418.0
sF6081602700.0
F2970.0
sF6001427600.0
F2190.0
sF6013306002.0
F1273.0
sF6013306003.0
F1932.0
sF6081610900.0
F3000.0
sF6085502101.0
F2483.0
sF6085502102.0
F2965.0
sF6013314200.0
F2337.0
sF6085510300.0
F1701.0
sF6095250601.0
F1898.0
sF6095250604.0
F1554.0
sF6095250605.0
F1604.0
sF6013347000.0
F2462.0
sF6013355200.0
F3868.0
sF6075016400.0
F2152.0
sF6041126100.0
F1892.0
sF6081611300.0
F2178.0
sF6001403100.0
F853.0
sF6013388000.0
F1422.0
sF6097151201.0
F3075.0
sF6075032802.0
F2197.0
sF6097151203.0
F2372.0
sF6097151204.0
F1657.0
sF6081602800.0
F2307.0
sF6001427700.0
F2479.0
sF6081611000.0
F2801.0
sF6085502201.0
F2968.0
sF6085502202.0
F1559.0
sF6001435900.0
F2543.0
sF6085510400.0
F1496.0
sF6001444100.0
F3623.0
sF6095250701.0
F1210.0
sF6085506605.0
F1979.0
sF6013355301.0
F3326.0
sF6013355302.0
F1504.0
sF6013355304.0
F3332.0
sF6013355306.0
F2095.0
sF6075016500.0
F2694.0
sF6041126200.0
F1570.0
sF6075032901.0
F2373.0
sF6075032902.0
F1925.0
sF6097151305.0
F2507.0
sF6097151306.0
F1806.0
sF6097151307.0
F2563.0
sF6097151308.0
F2071.0
sF6097151309.0
F2407.0
sF6097151310.0
F2226.0
sF6097151311.0
F2986.0
sF6095251000.0
F981.0
sF6081602900.0
F2049.0
sF6001427800.0
F2364.0
sF6081611100.0
F2654.0
sF6085502301.0
F1548.0
sF6085502302.0
F1348.0
sF6001436000.0
F2208.0
sF6085510500.0
F1714.0
sF6001444200.0
F3301.0
sF6095250801.0
F1442.0
sF6013339001.0
F1477.0
sF6013339002.0
F2656.0
sF6041118100.0
F472.0
sF6075016600.0
F3283.0
sF6013380000.0
F2681.0
sF6001403300.0
F2133.0
sF6075033000.0
F4189.0
sF6097151401.0
F3015.0
sF6097151402.0
F3552.0
sF6081603000.0
F2101.0
sF6001427900.0
F2335.0
sF6085502400.0
F3151.0
sF6001437600.0
F1566.0
sF6001436100.0
F2578.0
sF6085510600.0
F2434.0
sF6055200201.0
F1571.0
sF6055200202.0
F1179.0
sF6055200203.0
F1153.0
sF6001444301.0
F1936.0
sF6001444302.0
F2026.0
sF6095250900.0
F1076.0
sF6055201700.0
F1852.0
sF6095980000.0
F70.0
sF6097150204.0
F1317.0
sF6075016700.0
F2802.0
sF6001403400.0
F2133.0
sF6075033100.0
F2100.0
sF6097151502.0
F2745.0
sF6097151503.0
F1282.0
sF6097151504.0
F1469.0
sF6081603100.0
F1663.0
sF6001428000.0
F1736.0
sF6085502500.0
F2826.0
sF6001436200.0
F1553.0
sF6085510700.0
F2289.0
sF6055200301.0
F2339.0
sF6055200302.0
F1352.0
sF6001444400.0
F2527.0
sF6013301000.0
F1492.0
sF6013331000.0
F3000.0
sF6041110100.0
F2136.0
sF6013372000.0
F2956.0
sF6075016801.0
F2268.0
sF6075016802.0
F2077.0
sF6001403501.0
F2364.0
sF6001403502.0
F1280.0
sF6075033201.0
F908.0
sF6097151602.0
F800.0
sF6075033203.0
F1917.0
sF6075033204.0
F1747.0
sF6081603200.0
F2012.0
sF6001428100.0
F2292.0
sF6075060502.0
F1416.0
sF6081611400.0
F1208.0
sF6085502601.0
F1298.0
sF6085502603.0
F1241.0
sF6001436300.0
F3270.0
sF6055200400.0
F1672.0
sF6085510801.0
F2346.0
sF6085510802.0
F941.0
sF6085510803.0
F1110.0
sF6001444500.0
F3069.0
sF6095251100.0
F1358.0
sF6085502800.0
F1996.0
sF6097151601.0
F627.0
sF6041110200.0
F1882.0
sF6075016900.0
F1929.0
sF6075025100.0
F1681.0
sF6001403600.0
F2451.0
sF6097151700.0
F2910.0
sF6081603300.0
F3131.0
sF6001428200.0
F3161.0
sF6081611500.0
F1024.0
sF6085502701.0
F2347.0
sF6085502702.0
F3919.0
sF6001436401.0
F3292.0
sF6001436402.0
F1365.0
sF6085510900.0
F2217.0
sF6055200501.0
F2337.0
sF6055200503.0
F963.0
sF6013323000.0
F1900.0
sF6055200505.0
F1232.0
sF6001444602.0
F2241.0
sF6095251200.0
F1320.0
sF6041102100.0
F1100.0
sF6013364002.0
F2548.0
sF6075017000.0
F2032.0
sF6075025200.0
F2774.0
sF6001403701.0
F1635.0
sF6001403702.0
F1115.0
sF6097151800.0
F2453.0
sF6001420100.0
F990.0
sF6081603400.0
F2686.0
sF6085502604.0
F2171.0
sF6001428301.0
F3236.0
sF6001428302.0
F3010.0
sF6081611600.0
F1149.0
sF6001436500.0
F2089.0
sF6085511000.0
F2786.0
sF6001404900.0
F2209.0
sF6055200602.0
F2073.0
sF6095251300.0
F1282.0
sF6041102202.0
F2762.0
sF6041102203.0
F2142.0
sF6075017101.0
F1929.0
sF6075017102.0
F2034.0
sF6075025300.0
F2388.0
sF6001403800.0
F2037.0
sF6097151900.0
F1383.0
sF6001420200.0
F1300.0
sF6001428400.0
F2238.0
sF6081611700.0
F2487.0
sF6085502901.0
F2758.0
sF6085502902.0
F3458.0
sF6085502903.0
F2353.0
sF6013315000.0
F1648.0
sF6001436601.0
F2713.0
sF6085502906.0
F2159.0
sF6085502907.0
F1855.0
sF6085502908.0
F3204.0
sF6085502909.0
F2436.0
sF6085502910.0
F1820.0
sF6055200703.0
F1366.0
sF6055200704.0
F2190.0
sF6055200705.0
F1381.0
sF6055200706.0
F1639.0
sF6055200707.0
F1520.0
sF6095251400.0
F2219.0
sF6013356001.0
F1822.0
sF6013356002.0
F2389.0
sF6075025401.0
F1840.0
sF6075025402.0
F1675.0
sF6075025403.0
F2332.0
sF6001403900.0
F2015.0
sF6097152000.0
F1039.0
sF6013312000.0
F851.0
sF6001420300.0
F1852.0
sF6001428500.0
F1562.0
sF6081611800.0
F1778.0
sF6085503001.0
F1842.0
sF6085503002.0
F1574.0
sF6085503003.0
F2511.0
sF6001436700.0
F1601.0
sF6085511200.0
F1737.0
sF6055200802.0
F2535.0
sF6055200803.0
F918.0
sF6055200804.0
F2445.0
sF6095251500.0
F1428.0
sF6085512200.0
F1776.0
sF6097150304.0
F2233.0
sF6041127000.0
F1567.0
sF6075025500.0
F4372.0
sF6001404000.0
F1763.0
sF6097152100.0
F1191.0
sF6001420400.0
F652.0
sF6081603700.0
F2851.0
sF6001428600.0
F1501.0
sF6081611900.0
F4171.0
sF6001436800.0
F1875.0
sF6085503105.0
F1036.0
sF6055200900.0
F233.0
sF6085511301.0
F1465.0
sF6085503110.0
F1589.0
sF6085503111.0
F2302.0
sF6085503112.0
F1817.0
sF6085503113.0
F1664.0
sF6085503115.0
F3589.0
sF6085503116.0
F2373.0
sF6085503117.0
F1291.0
sF6085503118.0
F2256.0
sF6095251600.0
F1012.0
sF6085503121.0
F1869.0
sF6085503122.0
F1649.0
sF6085503123.0
F1599.0
sF6013348000.0
F1662.0
sF6085501300.0
F1598.0
sF6075025600.0
F3046.0
sF6001404101.0
F1719.0
sF6001404102.0
F1298.0
sF6097152201.0
F1921.0
sF6097152202.0
F2643.0
sF6097152203.0
F1584.0
sF6001420500.0
F1020.0
sF6081603801.0
F1308.0
sF6081603802.0
F2544.0
sF6001428700.0
F1480.0
sF6013307101.0
F1595.0
sF6013307102.0
F1819.0
sF6081612000.0
F2572.0
sF6001436900.0
F2865.0
sF6085503207.0
F1971.0
sF6085503208.0
F1811.0
sF6085503210.0
F2079.0
sF6085503211.0
F2410.0
sF6055201004.0
F2573.0
sF6055201005.0
F1144.0
sF6055201006.0
F1542.0
sF6055201007.0
F1975.0
sF6085503217.0
F1935.0
sF6085503218.0
F1760.0
sF6095251701.0
F1473.0
sF6095251702.0
F1163.0
sF6085508004.0
F2676.0
sF6075025701.0
F2726.0
sF6075025702.0
F2362.0
sF6001404200.0
F1588.0
sF6097152300.0
F1702.0
sF6001420600.0
F1347.0
sF6081603900.0
F2786.0
sF6013307201.0
F1256.0
sF6013307202.0
F1410.0
sF6081612100.0
F2791.0
sF6013307205.0
F2509.0
sF6001437000.0
F1821.0
sF6085503305.0
F2777.0
sF6085503306.0
F1977.0
sF6085511500.0
F3013.0
sF6055201101.0
F990.0
sF6055201102.0
F863.0
sF6085503312.0
F1698.0
sF6085503313.0
F2161.0
sF6085503315.0
F3431.0
sF6085503321.0
F2380.0
sF6085503322.0
F2023.0
sF6085503323.0
F2243.0
sF6085503324.0
F1821.0
sF6085503325.0
F2107.0
sF6085503326.0
F3090.0
sF6085503327.0
F2238.0
sF6013340001.0
F2523.0
sF6085503330.0
F3305.0
sF6085503331.0
F1312.0
sF6085503332.0
F1967.0
sF6085503333.0
F2143.0
sF6085503334.0
F3823.0
sF6085503336.0
F1691.0
sF6085503337.0
F1934.0
sF6041119100.0
F1614.0
sF6075017601.0
F4740.0
sF6013381000.0
F2289.0
sF6001404300.0
F1496.0
sF6097152400.0
F3251.0
sF6001400900.0
F1208.0
sF6081604000.0
F1727.0
sF6085503401.0
F1865.0
sF6085503402.0
F1914.0
sF6001437101.0
F3509.0
sF6001437102.0
F2100.0
sF6055201200.0
F2018.0
sF6085511608.0
F319.0
sF6085511609.0
F1353.0
sF6095251901.0
F1987.0
sF6095251902.0
F2360.0
sF6095251903.0
F2190.0
sF6055200504.0
F2904.0
sF6001444601.0
F2414.0
sF6041111000.0
F2571.0
sF6041119201.0
F1429.0
sF6041119202.0
F1196.0
sF6075017700.0
F1233.0
sF6075025900.0
F2356.0
sF6001404400.0
F2457.0
sF6097152501.0
F1916.0
sF6097152502.0
F1595.0
sF6081604101.0
F3714.0
sF6081604102.0
F1763.0
sF6001437200.0
F3140.0
sF6085503506.0
F2723.0
sF6085503507.0
F951.0
sF6055201300.0
F838.0
sF6085511701.0
F1508.0
sF6085503510.0
F2410.0
sF6085503511.0
F1770.0
sF6085511704.0
F1682.0
sF6085511705.0
F627.0
sF6085511707.0
F1118.0
sF6013332000.0
F3378.0
sF6013373000.0
F1694.0
sF6075017801.0
F1478.0
sF6075017802.0
F2748.0
sF6075026001.0
F2872.0
sF6075026002.0
F1799.0
sF6075026003.0
F2615.0
sF6075026004.0
F2246.0
sF6001404501.0
F798.0
sF6001404502.0
F2649.0
sF6097152600.0
F3095.0
sF6075980900.0
F433.0
sF6081604200.0
F2087.0
sF6085503601.0
F1378.0
sF6085503602.0
F1863.0
sF6001437300.0
F1609.0
sF6085511800.0
F1703.0
sF6055201401.0
F1129.0
sF6055201402.0
F1138.0
sF6055201403.0
F393.0
sF6095252102.0
F1776.0
sF6095252103.0
F2096.0
sF6095252104.0
F2331.0
sF6095252105.0
F1446.0
sF6095252106.0
F1782.0
sF6095252107.0
F1589.0
sF6095252108.0
F1452.0
sF6075017902.0
F1255.0
sF6075026100.0
F3910.0
sF6001404600.0
F1995.0
sF6097152701.0
F2101.0
sF6097152702.0
F2133.0
sF6081612500.0
F1961.0
sF6085503703.0
F1650.0
sF6001437400.0
F1570.0
sF6085503707.0
F2433.0
sF6055201500.0
F748.0
sF6085503709.0
F2371.0
sF6085503710.0
F1423.0
sF6085503711.0
F1694.0
sF6085503712.0
F1824.0
sF6013324001.0
F1872.0
sF6013324002.0
F2177.0
sF6085511907.0
F1844.0
sF6085511909.0
F3507.0
sF6085511910.0
F1255.0
sF6085511911.0
F2240.0
sF6085511912.0
F2386.0
sF6095252201.0
F3247.0
sF6085511914.0
F2413.0
sF6085511915.0
F1475.0
sF6085511916.0
F2120.0
sF6041103100.0
F3147.0
sF6075021100.0
F1951.0
sF6013365002.0
F1844.0
sF6013365003.0
F1987.0
sF6075018000.0
F1818.0
sF6081610201.0
F2088.0
sF6075026200.0
F4289.0
sF6001404700.0
F970.0
sF6081610202.0
F1948.0
sF6001441925.0
F2690.0
sF6097152801.0
F2182.0
sF6097152802.0
F2783.0
sF6075060700.0
F6002.0
sF6075042602.0
F1704.0
sF6001421100.0
F733.0
sF6081604400.0
F2150.0
sF6081612600.0
F2033.0
sF6085503802.0
F3717.0
sF6085503803.0
F2192.0
sF6001437500.0
F1781.0
sF6055201601.0
F909.0
sF6055201602.0
F1385.0
sF6085512005.0
F3139.0
sF6085512017.0
F3436.0
sF6095252306.0
F1314.0
sF6085512019.0
F2233.0
sF6085512020.0
F3194.0
sF6085512021.0
F3025.0
sF6085512022.0
F2579.0
sF6085512023.0
F2560.0
sF6085512024.0
F2298.0
sF6085512025.0
F1499.0
sF6085512026.0
F1960.0
sF6085512027.0
F1897.0
sF6095252316.0
F1435.0
sF6095252317.0
F2674.0
sF6085512030.0
F1481.0
sF6085512031.0
F2090.0
sF6085512032.0
F1730.0
sF6085512033.0
F3914.0
sF6085512034.0
F1523.0
sF6085512035.0
F2018.0
sF6085512036.0
F2183.0
sF6085512037.0
F1492.0
sF6085512038.0
F1411.0
sF6085512039.0
F2338.0
sF6085512042.0
F1326.0
sF6085512043.0
F2446.0
sF6085512045.0
F2772.0
sF6085512047.0
F2503.0
sF6085512052.0
F1895.0
sF6085512053.0
F2271.0
sF6075026301.0
F2691.0
sF6075026302.0
F2584.0
sF6075026303.0
F2499.0
sF6001404800.0
F1386.0
sF6097152903.0
F2070.0
sF6097152904.0
F2394.0
sF6097152905.0
F1777.0
sF6097152906.0
F2591.0
sF6075042700.0
F2691.0
sF6001421200.0
F1395.0
sF6081604500.0
F1475.0
sF6081612700.0
F870.0
sF6085503902.0
F2232.0
sF6085503903.0
F1570.0
sF6013316000.0
F571.0
sF6085512100.0
F634.0
sF6095252401.0
F1681.0
sF6095252402.0
F1911.0
sF6013357000.0
F1465.0
sF6075026401.0
F2225.0
sF6075026402.0
F2268.0
sF6075026403.0
F2217.0
sF6075026404.0
F1502.0
sF6097153001.0
F2805.0
sF6097153002.0
F2871.0
sF6097153003.0
F2489.0
sF6097153005.0
F2846.0
sF6097153006.0
F3167.0
sF6075042800.0
F980.0
sF6041132200.0
F456.0
sF6001421300.0
F1631.0
sF6081604600.0
F1115.0
sF6081612800.0
F1249.0
sF6085504001.0
F2334.0
sF6085504002.0
F2380.0
sF6001437701.0
F1539.0
sF6001437702.0
F1497.0
sF6055201800.0
F863.0
sF6095252501.0
F1054.0
sF6095252502.0
F770.0
sF6055200601.0
F2546.0
sF6075010100.0
F2023.0
sF6001405000.0
F1689.0
sF6097153102.0
F2018.0
sF6097153103.0
F1836.0
sF6097153104.0
F1426.0
sF6001421400.0
F711.0
sF6081604700.0
F1230.0
sF6013308001.0
F2887.0
sF6013308002.0
F1866.0
sF6081612900.0
F1720.0
sF6085504101.0
F1826.0
sF6085504102.0
F2263.0
sF6001437800.0
F2335.0
sF6055201900.0
F560.0
sF6085512305.0
F2053.0
sF6085512307.0
F2904.0
sF6085512308.0
F3319.0
sF6085512309.0
F2196.0
sF6085512310.0
F1878.0
sF6085512311.0
F1711.0
sF6085512312.0
F1628.0
sF6085512313.0
F1566.0
sF6085512314.0
F2584.0
sF6095252604.0
F1359.0
sF6095252605.0
F2021.0
sF6095252606.0
F1881.0
sF6095252607.0
F1338.0
sF6095252608.0
F1443.0
sF6095252610.0
F1314.0
sF6095252611.0
F1268.0
sF6013349000.0
F1987.0
sF6075010200.0
F2169.0
sF6081608900.0
F3057.0
sF6041128100.0
F2456.0
sF6001405100.0
F1932.0
sF6097153200.0
F3277.0
sF6001421500.0
F1278.0
sF6081604800.0
F2310.0
sF6081613000.0
F1291.0
sF6085504201.0
F2257.0
sF6085504202.0
F2229.0
sF6001437900.0
F1095.0
sF6055202000.0
F2332.0
sF6085512401.0
F1796.0
sF6085512402.0
F2112.0
sF6095252702.0
F2705.0
sF6095252703.0
F1719.0
sF6095252704.0
F1943.0
sF6095252705.0
F2399.0
sF6095252706.0
F1553.0
sF6095252707.0
F1880.0
sF6075010300.0
F2151.0
sF6041120000.0
F2316.0
sF6041128200.0
F1729.0
sF6001405200.0
F2509.0
sF6097153300.0
F4605.0
sF6001421600.0
F1296.0
sF6081604900.0
F1373.0
sF6001438000.0
F1743.0
sF6085504307.0
F2773.0
sF6085504308.0
F2124.0
sF6085512503.0
F3915.0
sF6085512505.0
F3061.0
sF6085504314.0
F2403.0
sF6085504315.0
F3278.0
sF6085504316.0
F2551.0
sF6085512509.0
F2297.0
sF6085504318.0
F2923.0
sF6085504319.0
F3646.0
sF6085504320.0
F1540.0
sF6085504321.0
F2660.0
sF6085504322.0
F2651.0
sF6085504323.0
F2836.0
sF6013341000.0
F2191.0
sF6001435104.0
F2604.0
sF6075010400.0
F2370.0
sF6013382000.0
F2793.0
sF6001405301.0
F1716.0
sF6001405302.0
F1296.0
sF6013390200.0
F905.0
sF6097153401.0
F2479.0
sF6097153403.0
F1622.0
sF6097153404.0
F1447.0
sF6081610304.0
F2175.0
sF6001421700.0
F1296.0
sF6081605000.0
F3151.0
sF6081613200.0
F2281.0
sF6001438100.0
F3731.0
sF6085504410.0
F2291.0
sF6085504411.0
F2637.0
sF6085512604.0
F1601.0
sF6085504413.0
F930.0
sF6085504414.0
F2506.0
sF6085504415.0
F2410.0
sF6085504416.0
F1925.0
sF6085504417.0
F240.0
sF6085504418.0
F2228.0
sF6085504420.0
F2243.0
sF6085504421.0
F2373.0
sF6085504422.0
F1927.0
sF6085504423.0
F1306.0
sF6095252904.0
F1850.0
sF6095252908.0
F1357.0
sF6095252909.0
F1200.0
sF6095252910.0
F2091.0
sF6095252911.0
F1384.0
sF6095252912.0
F2070.0
sF6095252913.0
F1807.0
sF6095252914.0
F1942.0
sF6095252915.0
F1543.0
sF6075010500.0
F1439.0
sF6001405401.0
F1880.0
sF6001405402.0
F1421.0
sF6075035100.0
F3960.0
sF6097153501.0
F1717.0
sF6097153502.0
F1265.0
sF6001421800.0
F889.0
sF6081605100.0
F1431.0
sF6081613300.0
F1098.0
sF6085504504.0
F4621.0
sF6001438201.0
F2295.0
sF6085504506.0
F2909.0
sF6001438203.0
F1940.0
sF6001438204.0
F2647.0
sF6095253000.0
F855.0
sF6041112100.0
F1759.0
sF6075010600.0
F2112.0
sF6013374000.0
F1912.0
sF6001405500.0
F1930.0
sF6097153600.0
F1821.0
sF6075035201.0
F2890.0
sF6075035202.0
F2556.0
sF6001421900.0
F1628.0
sF6081605200.0
F1506.0
sF6001430101.0
F3100.0
sF6001430102.0
F1063.0
sF6081613400.0
F1105.0
sF6085504601.0
F1276.0
sF6085504602.0
F754.0
sF6001438300.0
F2000.0
sF6001436602.0
F2112.0
sF6013386000.0
F1561.0
sF6085511100.0
F1952.0
sF6013333101.0
F1848.0
sF6013333102.0
F1794.0
sF6095253105.0
F2189.0
sF6095253106.0
F1280.0
sF6095253107.0
F2112.0
sF6095253108.0
F1568.0
sF6013390100.0
F1086.0
sF6041112201.0
F1618.0
sF6041112202.0
F1528.0
sF6075010700.0
F2731.0
sF6001405600.0
F1668.0
sF6075035300.0
F3704.0
sF6097153703.0
F939.0
sF6097153704.0
F1139.0
sF6097153705.0
F1455.0
sF6097153706.0
F1555.0
sF6001422000.0
F944.0
sF6081605300.0
F1855.0
sF6001430200.0
F3040.0
sF6085504700.0
F207.0
sF6081613501.0
F2162.0
sF6081613502.0
F1925.0
sF6001438400.0
F1368.0
sF6013325000.0
F2192.0
sF6013333200.0
F2507.0
sF6095253201.0
F1777.0
sF6095253203.0
F1532.0
sF6095253204.0
F2383.0
sF6095253205.0
F1178.0
sF6095253206.0
F1168.0
sF6041104101.0
F3395.0
sF6041104102.0
F2500.0
sF6075010800.0
F2421.0
sF6013366001.0
F1726.0
sF6013366002.0
F2331.0
sF6001405700.0
F1578.0
sF6075035400.0
F3400.0
sF6097153801.0
F4262.0
sF6097153804.0
F1651.0
sF6097153806.0
F1561.0
sF6097153807.0
F1778.0
sF6097153808.0
F1887.0
sF6097153809.0
F2045.0
sF6001422100.0
F1254.0
sF6081605400.0
F2752.0
sF6001430300.0
F1715.0
sF6081613600.0
F1931.0
sF6085504802.0
F2641.0
sF6085504803.0
F3156.0
sF6085504805.0
F3312.0
sF6085504806.0
F1481.0
sF6081610000.0
F2201.0
sF6085513000.0
F1074.0
sF6095253300.0
F822.0
sF6001442100.0
F2429.0
sF6041104200.0
F2405.0
sF6085504311.0
F3714.0
sF6075010900.0
F2442.0
sF6085512506.0
F2714.0
sF6001405800.0
F1782.0
sF6085512508.0
F3064.0
sF6097153901.0
F2207.0
sF6097153902.0
F1896.0
sF6085504317.0
F2200.0
sF6085512510.0
F2775.0
sF6001422200.0
F1429.0
sF6081605500.0
F2443.0
sF6001430400.0
F1027.0
sF6075060100.0
F1630.0
sF6085504901.0
F4669.0
sF6095252801.0
F527.0
sF6013317000.0
F1088.0
sF6095252802.0
F243.0
sF6095253402.0
F2276.0
sF6095253403.0
F1658.0
sF6095253404.0
F2160.0
sF6041104300.0
F823.0
sF6013358000.0
F2435.0
sF6075011000.0
F3017.0
sF6081610400.0
F2290.0
sF6001405901.0
F1646.0
sF6001405902.0
F1372.0
sF6097154000.0
F864.0
sF6075016300.0
F2343.0
sF6001422300.0
F1405.0
sF6081605600.0
F2099.0
sF6001430500.0
F2544.0
sF6081613800.0
F1393.0
sF6085505001.0
F4984.0
sF6085505006.0
F5006.0
sF6085505007.0
F1952.0
sF6085505008.0
F3866.0
sF6085505009.0
F4702.0
sF6095253500.0
F2355.0
sF6075011100.0
F2959.0
sF6041129000.0
F1136.0
sF6001406000.0
F1693.0
sF6097154100.0
F1450.0
sF6001422400.0
F1461.0
sF6081605700.0
F2058.0
sF6013309000.0
F1205.0
sF6095250103.0
F1837.0
sF6081613900.0
F2464.0
sF6095250104.0
F929.0
sF6013350000.0
F2250.0
sF6075011200.0
F1796.0
sF6001432600.0
F3594.0
sF6001406100.0
F1759.0
sF6013391000.0
F1155.0
sF6097154201.0
F1647.0
sF6097154202.0
F2638.0
sF6075022704.0
F1793.0
sF6001422500.0
F1186.0
sF6081605800.0
F1048.0
sF6001430700.0
F1861.0
sF6081614000.0
F3029.0
sF6085505202.0
F3175.0
sF6085505203.0
F1911.0
sF6075011300.0
F1477.0
sF6001406201.0
F1852.0
sF6001406202.0
F1713.0
sF6097154302.0
F905.0
sF6097154303.0
F275.0
sF6097154304.0
F591.0
sF6001422600.0
F187.0
sF6081605900.0
F2573.0
sF6001430800.0
F2805.0
sF6085505301.0
F2644.0
sF6085505302.0
F2128.0
sF6085505303.0
F2719.0
sF6085505304.0
F1752.0
sF6085505305.0
F2759.0
sF6085513500.0
F309.0
sF6081609100.0
F981.0
sF6041121100.0
F2067.0
sF6013383000.0
F2167.0
sF6001406300.0
F1645.0
sF6001422700.0
F971.0
sF6081606000.0
F2223.0
sF6001430900.0
F2175.0
sF6085505401.0
F3074.0
sF6085505402.0
F1549.0
sF6085505403.0
F3706.0
sF6085508504.0
F3399.0
sF6085512602.0
F1127.0
sF6085512603.0
F1358.0
sF6041113000.0
F910.0
sF6085504412.0
F2255.0
sF6041121200.0
F2158.0
sF6001406400.0
F940.0
sF6001422800.0
F1463.0
sF6081606100.0
F1965.0
sF6001431000.0
F1444.0
sF6085505500.0
F2020.0
sF6095252903.0
F1381.0
sF6013334001.0
F1714.0
sF6013334004.0
F3165.0
sF6013334006.0
F1915.0
sF6013375000.0
F1522.0
sF6085501700.0
F1732.0
sF6001406500.0
F2359.0
sF6085505800.0
F1915.0
sF6001422900.0
F1388.0
sF6081606200.0
F3202.0
sF6001431100.0
F1653.0
sF6085505600.0
F1362.0
sF6041105000.0
F2810.0
sF6075011700.0
F1531.0
sF6001406601.0
F2008.0
sF6001406602.0
F1076.0
sF6001423000.0
F1884.0
sF6081606300.0
F1904.0
sF6001431200.0
F2603.0
sF6085505700.0
F2738.0
sF6013326000.0
F1350.0
sF6013334200.0
F2597.0
sF6085511905.0
F1390.0
sF6075011800.0
F929.0
sF6001406700.0
F2475.0
sF6001423100.0
F1705.0
sF6081606400.0
F2188.0
sF6075061000.0
F2315.0
sF6085503108.0
F3443.0
sF6085511302.0
F1861.0
sF6013367100.0
F2164.0
sF6075011901.0
F1331.0
sF6075011902.0
F1704.0
sF6075020100.0
F3018.0
sF6001406800.0
F1831.0
sF6081610302.0
F1148.0
sF6001423200.0
F1222.0
sF6081606500.0
F1483.0
sF6085505900.0
F3369.0
sF6013318000.0
F1567.0
sF6013367200.0
F2138.0
sF6075020200.0
F3456.0
sF6001406900.0
F1905.0
sF6001423300.0
F1552.0
sF6081606600.0
F2100.0
sF6075061200.0
F1988.0
sF6085504505.0
F3473.0
sF6085504507.0
F3037.0
sF6013359102.0
F2344.0
sF6013359103.0
F2526.0
sF6013359104.0
F956.0
sF6013359105.0
F2237.0
sF6075012100.0
F2133.0
sF6075020300.0
F2044.0
sF6001407000.0
F2504.0
sF6001423400.0
F1942.0
sF6081606700.0
F1391.0
sF6013310000.0
F2061.0
sF6085506101.0
F2391.0
sF6085506102.0
F2036.0
sF6085506103.0
F2331.0
sF6013359202.0
F2769.0
sF6013359203.0
F3067.0
sF6013359204.0
F2147.0
sF6075012201.0
F2382.0
sF6075012202.0
F1425.0
sF6075020401.0
F1616.0
sF6075020402.0
F2268.0
sF6001407101.0
F1237.0
sF6001407102.0
F1771.0
sF6013392000.0
F1087.0
sF6075061100.0
F2148.0
sF6001423500.0
F1292.0
sF6081606800.0
F1848.0
sF6075061400.0
F2676.0
sF6085506202.0
F3009.0
sF6085506203.0
F2891.0
sF6085506204.0
F2652.0
sF6013351101.0
F669.0
sF6013351102.0
F885.0
sF6013351103.0
F463.0
sF6075012301.0
F1140.0
sF6075012302.0
F1724.0
sF6041122000.0
F405.0
sF6075020500.0
F1631.0
sF6041130201.0
F1149.0
sF6041130202.0
F1734.0
sF6001407200.0
F2233.0
sF6075045100.0
F2566.0
sF6001423601.0
F1118.0
sF6001423602.0
F1543.0
sF6081606900.0
F1324.0
sF6013302005.0
F2697.0
sF6013302006.0
F1724.0
sF6013302007.0
F2620.0
sF6013302008.0
F3183.0
sF6013302009.0
F2475.0
sF6013302010.0
F4384.0
sF6075061500.0
F7619.0
sF6085506301.0
F2491.0
sF6085506302.0
F3007.0
sF6085506304.0
F2160.0
sF6085506305.0
F2909.0
sF6013343001.0
F2071.0
sF6013343002.0
F1796.0
sF6013343003.0
F1718.0
sF6013351200.0
F2134.0
sF6075012401.0
F2263.0
sF6075012402.0
F2348.0
sF6075020600.0
F2688.0
sF6085509302.0
F1460.0
sF6013384000.0
F1832.0
sF6001407300.0
F1077.0
sF6013392200.0
F4198.0
sF6075045200.0
F2830.0
sF6001423700.0
F1024.0
sF6081607000.0
F1757.0
sF6085503204.0
F3442.0
sF6085506401.0
F2169.0
sF6085506402.0
F2485.0
sF6001440100.0
F1152.0
sF6085511400.0
F1347.0
sF6055201003.0
F2113.0
sF6085503212.0
F2177.0
sF6085503213.0
F2061.0
sF6075012501.0
F1870.0
sF6075012502.0
F1477.0
sF6075020700.0
F2879.0
sF6001407400.0
F1333.0
sF6013392300.0
F1628.0
sF6001423800.0
F1115.0
sF6081607100.0
F1593.0
sF6075012000.0
F2448.0
sF6085506501.0
F2776.0
sF6085506502.0
F2147.0
sF6085506503.0
F2645.0
sF6001440200.0
F2663.0
sF6013335000.0
F1433.0
sF6041114100.0
F2357.0
sF6075012601.0
F1382.0
sF6075012602.0
F1473.0
sF6013376000.0
F1994.0
sF6001407500.0
F1365.0
sF6001423901.0
F962.0
sF6001423902.0
F684.0
sF6081607200.0
F2334.0
sF6001432100.0
F2005.0
sF6085506601.0
F2207.0
sF6085506603.0
F1926.0
sF6085506604.0
F3432.0
sF6001440301.0
F3310.0
sF6085506606.0
F2031.0
sF6001440304.0
F2205.0
sF6001440305.0
F1836.0
sF6001440306.0
F1987.0
sF6001440307.0
F2038.0
sF6001440308.0
F2644.0
sF6001442400.0
F2959.0
sF6001440331.0
F1581.0
sF6001440332.0
F1664.0
sF6001440333.0
F1465.0
sF6001440334.0
F1990.0
sF6001440335.0
F3041.0
sF6001440336.0
F2094.0
sF6041106001.0
F2024.0
sF6041106002.0
F2354.0
sF6041114200.0
F1328.0
sF6075012700.0
F1893.0
sF6075020900.0
F2262.0
sF6001407600.0
F2357.0
sF6001424001.0
F1616.0
sF6001424002.0
F1005.0
sF6081607300.0
F1889.0
sF6001432200.0
F2029.0
sF6085506701.0
F1896.0
sF6085506702.0
F2654.0
sF6085506703.0
F1640.0
sF6013327000.0
F2881.0
sF6075012800.0
F2195.0
sF6013368001.0
F1866.0
sF6013368002.0
F1439.0
sF6075021000.0
F2266.0
sF6081610700.0
F2202.0
sF6001407700.0
F1871.0
sF6085506000.0
F2284.0
sF6081607400.0
F2360.0
sF6001432300.0
F2321.0
sF6085506801.0
F2567.0
sF6085506802.0
F2520.0
sF6085506803.0
F3214.0
sF6085506804.0
F1722.0
sF6013389100.0
F1085.0
sF6075012901.0
F1571.0
sF6075012902.0
F1954.0
sF6081984300.0
F112.0
sF6085503214.0
F3344.0
sF6001407800.0
F1057.0
sF6081607500.0
F2712.0
sF6001432400.0
F2759.0
sF6085506900.0
F2893.0
sF6013319000.0
F3512.0
sF6075013000.0
F2253.0
sF6075021200.0
F1503.0
sF6013307204.0
F1679.0
sF6001407900.0
F1466.0
sF6081607600.0
F1973.0
sF6085503304.0
F2957.0
sF6001432501.0
F2315.0
sF6001432502.0
F2336.0
sF6085507001.0
F2506.0
sF6085507002.0
F1105.0
sF6013360101.0
F2032.0
sF6013360102.0
F1902.0
sF6075013101.0
F2230.0
sF6075013102.0
F1389.0
sF6075021300.0
F1232.0
sF6001408000.0
F1255.0
sF6081607701.0
F1812.0
sF6081607702.0
F1720.0
sF6013311000.0
F1837.0
sF6085507100.0
F1298.0
sF6095251802.0
F1043.0
sF6075047600.0
F2734.0
sF6095251803.0
F2158.0
sF6095251804.0
F1611.0
sF6085503329.0
F1763.0
sF6013360200.0
F2062.0
sF6013340002.0
F3079.0
sF6075013200.0
F1829.0
sF6081609400.0
F1566.0
sF6075021400.0
F1707.0
sF6041131100.0
F584.0
sF6001408100.0
F2781.0
sF6081607800.0
F1723.0
sF6001432700.0
F1336.0
sF6085507203.0
F1174.0
sF6085507205.0
F1935.0
sF6085507206.0
F1066.0
sF6013352101.0
F1046.0
sF6013352102.0
F1921.0
sF6075013300.0
F1699.0
sF6041123000.0
F567.0
sF6075021500.0
F2655.0
sF6001408200.0
F1974.0
sF6081607900.0
F2009.0
sF6001432800.0
F1687.0
sF6085507301.0
F2328.0
sF6085507302.0
F1107.0
sF6013352201.0
F2171.0
sF6013352202.0
F1016.0
sF6075013400.0
F1893.0
sF6075021600.0
F1987.0
sF6001400100.0
F1294.0
sF6001408300.0
F1974.0
sF6075025800.0
F1177.0
sF6013303102.0
F3237.0
sF6013303103.0
F4642.0
sF6081608001.0
F1811.0
sF6081608002.0
F1940.0
sF6081608004.0
F3581.0
sF6085507401.0
F2376.0
sF6085507402.0
F1781.0
sF6001441100.0
F1870.0
sF6081608013.0
F2159.0
sF6013314104.0
F2647.0
sF6081608023.0
F1303.0
sF6013389200.0
F968.0
sF6041115000.0
F2748.0
sF6075013500.0
F1408.0
sF6075021700.0
F2015.0
sF6001400200.0
F1005.0
sF6013385100.0
F1205.0
sF6001408400.0
F1407.0
sF6013303201.0
F3869.0
sF6013303202.0
F2941.0
sF6013303203.0
F3249.0
sF6081608100.0
F1974.0
sF6013303205.0
F3198.0
sF6075980200.0
F146.0
sF6085507500.0
F2224.0
sF6001441200.0
F3157.0
sF6001981900.0
F118.0
sF6013303204.0
F1764.0
sF6001450746.0
F1575.0
sF6013377000.0
F2435.0
sF6001400300.0
F2490.0
sF6013385200.0
F726.0
sF6001433000.0
F2156.0
sF6001408500.0
F1834.0
sF6001450750.0
F1867.0
sF6001450751.0
F2536.0
sF6001450752.0
F2705.0
sF6081608200.0
F1813.0
sF6075980300.0
F149.0
sF6001433102.0
F1822.0
sF6001433103.0
F1712.0
sF6085507600.0
F2152.0
sF6001441301.0
F1499.0
sF6001441302.0
F2564.0
sF6013336101.0
F1706.0
sF6013336102.0
F2655.0
sF6001982000.0
F141.0
sF6041107000.0
F2587.0
sF6001400400.0
F1977.0
sF6075030101.0
F2327.0
sF6075030102.0
F2269.0
sF6001408600.0
F2017.0
sF6081600100.0
F2484.0
sF6081608300.0
F1946.0
sF6001433200.0
F3224.0
sF6075980401.0
F187.0
sF6085507701.0
F1773.0
sF6085507702.0
F2384.0
sF6085507703.0
F2879.0
sF6001441401.0
F3175.0
sF6001441402.0
F2297.0
sF6013328000.0
F1029.0
sF6013336201.0
F1601.0
sF6013336202.0
F1834.0
sF6081609000.0
F1119.0
sF6013369001.0
F2354.0
sF6013369002.0
F1196.0
sF6001400500.0
F1902.0
sF6075030201.0
F2150.0
sF6075030202.0
F2325.0
sF6001408700.0
F2548.0
sF6081600200.0
F2280.0
sF6001425101.0
F926.0
sF6001425102.0
F1528.0
sF6001425103.0
F1506.0
sF6001425104.0
F1938.0
sF6001433300.0
F3398.0
sF6075980501.0
F297.0
sF6085507805.0
F2231.0
sF6085507806.0
F2240.0
sF6085507807.0
F1388.0
sF6085507808.0
F2426.0
sF6097151100.0
F1708.0
sF6001441521.0
F2671.0
sF6001441522.0
F2360.0
sF6001441523.0
F1973.0
sF6001441524.0
F1902.0
sF6001400600.0
F935.0
sF6075030301.0
F2570.0
sF6075030302.0
F1743.0
sF6001408800.0
F2048.0
sF6081600300.0
F2222.0
sF6081608501.0
F2719.0
sF6081608502.0
F1685.0
sF6075980600.0
F471.0
sF6085507903.0
F2161.0
sF6085507904.0
F1591.0
sF6013320001.0
F1555.0
sF6085507906.0
F1967.0
sF6013320003.0
F1373.0
sF6013320004.0
F2760.0
sF6013361000.0
F2074.0
sF6075021800.0
F2167.0
sF6013306004.0
F1403.0
sF6001400700.0
F2288.0
sF6075030400.0
F2527.0
sF6001408900.0
F1108.0
sF6081600401.0
F1813.0
sF6081600402.0
F2492.0
sF6081608600.0
F2200.0
sF6001433500.0
F2267.0
sF6085508001.0
F3118.0
sF6085508003.0
F938.0
sF6001441700.0
F3526.0
sF6081609300.0
F1462.0
sF6001400800.0
F1878.0
sF6075030500.0
F1329.0
sF6001409000.0
F1615.0
sF6081600500.0
F3824.0
sF6081608700.0
F3163.0
sF6001433600.0
F2971.0
sF6085508101.0
F2710.0
sF6085508102.0
F1568.0
sF6001441800.0
F2976.0
sF6013353001.0
F1327.0
sF6013353002.0
F1471.0
sF6041132100.0
F610.0
sF6075030600.0
F1200.0
sF6001409100.0
F869.0
sF6081600600.0
F2723.0
sF6081608800.0
F2605.0
sF6085503504.0
F2428.0
sF6001433700.0
F1604.0
sF6085503804.0
F2649.0
sF6085508202.0
F3446.0
sF6085508203.0
F2205.0
sF6085508204.0
F1910.0
sF6001450101.0
F2164.0
sF6001450102.0
F2138.0
sF6085503508.0
F2527.0
sF6085503509.0
F1786.0
sF6001441921.0
F1643.0
sF6001441923.0
F2412.0
sF6001441924.0
F3253.0
sF6085511702.0
F1110.0
sF6001441926.0
F1726.0
sF6001441927.0
F1675.0
sF6097153903.0
F1569.0
sF6001401000.0
F2824.0
sF6075030700.0
F3168.0
sF6001409200.0
F1229.0
sF6081600700.0
F3758.0
sF6013304001.0
F1562.0
sF6013304002.0
F558.0
sF6013304003.0
F1300.0
sF6085500100.0
F3177.0
sF6013304005.0
F2695.0
sF6001433800.0
F3258.0
sF6085508301.0
F1906.0
sF6085508303.0
F1274.0
sF6085508304.0
F3561.0
sF6001450200.0
F2700.0
sF6013304004.0
F1370.0
sF6001430600.0
F2814.0
sF6041124100.0
F1878.0
sF6075022600.0
F1265.0
sF6001401100.0
F2241.0
sF6075030800.0
F2981.0
sF6001409300.0
F1904.0
sF6081613700.0
F3900.0
sF6081600800.0
F3175.0
sF6085500200.0
F2398.0
sF6001433900.0
F2736.0
sF6085508401.0
F3098.0
sF6085508403.0
F1288.0
sF6085508404.0
F2928.0
sF6001450300.0
F2509.0
sF6075032801.0
F2079.0
sF6001442000.0
F1472.0
sF6013345101.0
F2536.0
sF6013345102.0
F1930.0
sF6013345103.0
F2301.0
sF6013345105.0
F2611.0
sF6013345108.0
F3336.0
sF6013345111.0
F2450.0
sF6013345112.0
F2711.0
sF6013345113.0
F1774.0
sF6013345114.0
F2565.0
sF6013345115.0
F2555.0
sF6013345116.0
F1425.0
sF6041116000.0
F1272.0
sF6041124200.0
F1591.0
sF6075022702.0
F1134.0
sF6001401200.0
F1502.0
sF6075030900.0
F3130.0
sF6001409400.0
F1559.0
sF6085507905.0
F2520.0
sF6081600900.0
F2098.0
sF6085500300.0
F1783.0
sF6001434000.0
F2081.0
sF6085508503.0
F2804.0
sF6001442200.0
F3132.0
sF6085508505.0
F2065.0
sF6085508507.0
F1604.0
sF6085508508.0
F2411.0
sF6001450400.0
F2984.0
sF6013345202.0
F3675.0
sF6013345203.0
F2723.0
sF6013345204.0
F1338.0
sF6013378000.0
F1545.0
sF6075022801.0
F2575.0
sF6075022802.0
F1106.0
sF6075022803.0
F2276.0
sF6001401300.0
F1784.0
sF6075031000.0
F2017.0
sF6001409500.0
F1199.0
sF6081601000.0
F3557.0
sF6085500400.0
F1259.0
sF6081609201.0
F1803.0
sF6081609202.0
F1931.0
sF6085508601.0
F1841.0
sF6085508602.0
F2298.0
sF6001442301.0
F2136.0
sF6001442302.0
F2390.0
sF6001450501.0
F1551.0
sF6001450502.0
F2364.0
sF6013337100.0
F1503.0
sF6075022901.0
F2218.0
sF6075022902.0
F1320.0
sF6075022903.0
F1786.0
sF6001401400.0
F1963.0
sF6075031100.0
F3415.0
sF6001409600.0
F1767.0
sF6081601100.0
F3041.0
sF6085500500.0
F2510.0
sF6085508703.0
F3954.0
sF6085508704.0
F3462.0
sF6013329000.0
F2664.0
sF6001450601.0
F1701.0
sF6001450602.0
F3909.0
sF6001450603.0
F2250.0
sF6001450604.0
F2292.0
sF6001450605.0
F1720.0
sF6001450606.0
F2726.0
sF6001450607.0
F2278.0
sF6013337200.0
F2942.0
sF6041108100.0
F2877.0
sF6013370000.0
F1438.0
sF6075023001.0
F2981.0
sF6075023003.0
F2099.0
sF6001401500.0
F1223.0
sF6075031201.0
F3482.0
sF6075031202.0
F1926.0
sF6001409700.0
F1758.0
sF6081601200.0
F3209.0
sF6041133000.0
F919.0
sF6001426100.0
F2257.0
sF6085500600.0
F2408.0
sF6085508800.0
F1804.0
sF6001442500.0
F3355.0
sF6095253101.0
F1788.0
sF6001450701.0
F3501.0
sF6013337300.0
F2697.0
sF6001983200.0
F468.0
sF6041108200.0
F2552.0
sF6001450741.0
F2123.0
sF6001450742.0
F2114.0
sF6001450743.0
F2937.0
sF6001450744.0
F2327.0
sF6001450745.0
F2730.0
sF6001435800.0
F2685.0
sF6075023102.0
F1820.0
sF6075023103.0
F1349.0
sF6001401600.0
F1118.0
sF6075031301.0
F2158.0
sF6075031302.0
F3352.0
sF6001409800.0
F1313.0
sF6081601300.0
F3921.0
sF6075047701.0
F2289.0
sF6075047702.0
F2019.0
sF6001426200.0
F2111.0
sF6081609500.0
F2262.0
sF6085508900.0
F2297.0
sF6001442601.0
F1760.0
sF6001442602.0
F2262.0
sF6081601501.0
F2582.0
sF6075047902.0
F1794.0
sF6013362000.0
F1395.0
sF6075023200.0
F2191.0
sF6001401700.0
F1537.0
sF6075031400.0
F3878.0
sF6001409900.0
F1524.0
sF6081601400.0
F3587.0
sF6075047801.0
F2154.0
sF6075047802.0
F1961.0
sF6085500800.0
F2118.0
sF6081609601.0
F1383.0
sF6081609602.0
F830.0
sF6081609603.0
F2453.0
sF6085509000.0
F3171.0
sF6001442700.0
F1454.0
sF6013321101.0
F2837.0
sF6013321102.0
F2899.0
sF6013321103.0
F2059.0
sF6097151301.0
F2226.0
sF6001442800.0
F1506.0
sF6075015100.0
F1397.0
sF6075023300.0
F1896.0
sF6001401800.0
F997.0
sF6001410000.0
F1432.0
sF6075047901.0
F3237.0
sF6081601502.0
F2402.0
sF6081609700.0
F2005.0
sF6085500901.0
F1920.0
sF6085500902.0
F1101.0
sF6085509102.0
F2747.0
sF6013321200.0
F2282.0
sF6085509105.0
F3455.0
sF6085509106.0
F2101.0
sF6085509107.0
F2372.0
sF6085509108.0
F2300.0
sF6085509109.0
F2662.0
s.