(dp0
F6013354001.0
S'1155'
p1
sF6013354002.0
S'1154'
p2
sF6075015200.0
S'73'
p3
sF6075023400.0
S'6747'
p4
sF6001410100.0
S'882'
p5
sF6081601601.0
S'6724'
p6
sF6081601603.0
S'218'
p7
sF6081601604.0
S'6314'
p8
sF6081601605.0
S'219'
p9
sF6085501000.0
S'549'
p10
sF6013313101.0
S'1199'
p11
sF6013313102.0
S'1198'
p12
sF6013313103.0
S'1196'
p13
sF6085509201.0
S'5820'
p14
sF6085509202.0
S'376'
p15
sF6001442900.0
S'759'
p16
sF6001451101.0
S'715'
p17
sF6001451102.0
S'2991'
p18
sF6075015300.0
S'7403'
p19
sF6041125000.0
S'1444'
p20
sF6097150100.0
S'1324'
p21
sF6001410200.0
S'881'
p22
sF6081601700.0
S'217'
p23
sF6013305000.0
S'1644'
p24
sF6081609900.0
S'319'
p25
sF6085501101.0
S'5048'
p26
sF6085501102.0
S'12244'
p27
sF6013313203.0
S'8015'
p28
sF6013313204.0
S'1200'
p29
sF6013313205.0
S'12234'
p30
sF6013313206.0
S'1610'
p31
sF6085509303.0
S'375'
p32
sF6085509304.0
S'5608'
p33
sF6001443001.0
S'757'
p34
sF6001443002.0
S'758'
p35
sF6001451201.0
S'719'
p36
sF6001451202.0
S'720'
p37
sF6081608400.0
S'13044'
p38
sF6075015400.0
S'13623'
p39
sF6013387000.0
S'1047'
p40
sF6097150202.0
S'1320'
p41
sF6097150203.0
S'8287'
p42
sF6097150204.0
S'8281'
p43
sF6081601800.0
S'214'
p44
sF6081610000.0
S'6104'
p45
sF6095252000.0
S'1212'
p46
sF6085509401.0
S'365'
p47
sF6085509403.0
S'380'
p48
sF6085509404.0
S'12612'
p49
sF6001443102.0
S'753'
p50
sF6001443103.0
S'754'
p51
sF6001443104.0
S'3692'
p52
sF6001443105.0
S'3333'
p53
sF6001451300.0
S'8765'
p54
sF6085503708.0
S'596'
p55
sF6085507805.0
S'487'
p56
sF6013346101.0
S'1163'
p57
sF6013346102.0
S'1164'
p58
sF6085507807.0
S'491'
p59
sF6085503713.0
S'595'
p60
sF6041117000.0
S'1432'
p61
sF6075015500.0
S'74'
p62
sF6001402200.0
S'2792'
p63
sF6097150303.0
S'1322'
p64
sF6001410400.0
S'879'
p65
sF6097150305.0
S'8528'
p66
sF6097150306.0
S'1319'
p67
sF6075040100.0
S'7352'
p68
sF6081601901.0
S'6392'
p69
sF6081601902.0
S'6697'
p70
sF6081610100.0
S'316'
p71
sF6095252201.0
S'1248'
p72
sF6085509500.0
S'5203'
p73
sF6095252202.0
S'1247'
p74
sF6001443200.0
S'747'
p75
sF6001451401.0
S'721'
p76
sF6001451403.0
S'4091'
p77
sF6001451404.0
S'722'
p78
sF6013346201.0
S'2231'
p79
sF6013346203.0
S'1786'
p80
sF6013346204.0
S'8510'
p81
sF6075015600.0
S'68'
p82
sF6013309000.0
S'1205'
p83
sF6013379000.0
S'1060'
p84
sF6001410500.0
S'2751'
p85
sF6075040200.0
S'7351'
p86
sF6085505100.0
S'10311'
p87
sF6081602000.0
S'209'
p88
sF6085501401.0
S'5025'
p89
sF6085501402.0
S'5023'
p90
sF6081610203.0
S'326'
p91
sF6001435102.0
S'3565'
p92
sF6001435103.0
S'803'
p93
sF6001435104.0
S'820'
p94
sF6001443301.0
S'748'
p95
sF6001451501.0
S'716'
p96
sF6001451503.0
S'717'
p97
sF6001451504.0
S'718'
p98
sF6001451505.0
S'12170'
p99
sF6001451506.0
S'3024'
p100
sF6013338101.0
S'8128'
p101
sF6013338102.0
S'1119'
p102
sF6001443321.0
S'3871'
p103
sF6001443322.0
S'749'
p104
sF6041109001.0
S'1431'
p105
sF6041109002.0
S'7884'
p106
sF6075015700.0
S'69'
p107
sF6001402400.0
S'983'
p108
sF6097150500.0
S'8286'
p109
sF6081602100.0
S'6603'
p110
sF6085501501.0
S'552'
p111
sF6085501502.0
S'553'
p112
sF6081610303.0
S'312'
p113
sF6001435200.0
S'843'
p114
sF6085509700.0
S'390'
p115
sF6013330000.0
S'8087'
p116
sF6001451601.0
S'723'
p117
sF6001451602.0
S'724'
p118
sF6013338201.0
S'1137'
p119
sF6013338203.0
S'8156'
p120
sF6013338204.0
S'1135'
p121
sF6013371000.0
S'1055'
p122
sF6075015801.0
S'7380'
p123
sF6075015802.0
S'7378'
p124
sF6081611200.0
S'321'
p125
sF6001402500.0
S'982'
p126
sF6097150601.0
S'1333'
p127
sF6097150602.0
S'1334'
p128
sF6097150603.0
S'1335'
p129
sF6097150607.0
S'1336'
p130
sF6097150609.0
S'8256'
p131
sF6097150610.0
S'8415'
p132
sF6097150611.0
S'8577'
p133
sF6097150612.0
S'8252'
p134
sF6081602200.0
S'211'
p135
sF6001427100.0
S'949'
p136
sF6085501600.0
S'555'
p137
sF6001435300.0
S'841'
p138
sF6085509801.0
S'381'
p139
sF6085509802.0
S'382'
p140
sF6001451701.0
S'727'
p141
sF6001451703.0
S'3680'
p142
sF6001451704.0
S'3747'
p143
sF6095250105.0
S'1246'
p144
sF6095250106.0
S'10352'
p145
sF6013338301.0
S'1140'
p146
sF6013338302.0
S'1141'
p147
sF6075015900.0
S'77'
p148
sF6001402600.0
S'2822'
p149
sF6097150701.0
S'1332'
p150
sF6097150702.0
S'1326'
p151
sF6075042601.0
S'7311'
p152
sF6081602300.0
S'6588'
p153
sF6001427200.0
S'948'
p154
sF6085501700.0
S'4925'
p155
sF6001435400.0
S'3521'
p156
sF6085509901.0
S'383'
p157
sF6085509902.0
S'389'
p158
sF6013322000.0
S'1127'
p159
sF6095250200.0
S'11087'
p160
sF6041101100.0
S'1404'
p161
sF6013363000.0
S'2255'
p162
sF6075016000.0
S'7664'
p163
sF6001402700.0
S'9791'
p164
sF6097150800.0
S'8215'
p165
sF6001433400.0
S'860'
p166
sF6081602400.0
S'213'
p167
sF6001427300.0
S'3276'
p168
sF6085501800.0
S'4931'
p169
sF6081610601.0
S'327'
p170
sF6081610602.0
S'328'
p171
sF6001435500.0
S'3566'
p172
sF6085510001.0
S'5563'
p173
sF6085510002.0
S'387'
p174
sF6095250300.0
S'1231'
p175
sF6001441601.0
S'786'
p176
sF6085507906.0
S'482'
p177
sF6041101200.0
S'1405'
p178
sF6075016100.0
S'78'
p179
sF6001402800.0
S'970'
p180
sF6097150901.0
S'1331'
p181
sF6097150902.0
S'1330'
p182
sF6081602500.0
S'231'
p183
sF6085501900.0
S'4901'
p184
sF6001435601.0
S'3559'
p185
sF6001435602.0
S'837'
p186
sF6085510100.0
S'386'
p187
sF6095250400.0
S'1227'
p188
sF6095252305.0
S'1249'
p189
sF6075020800.0
S'101'
p190
sF6095252310.0
S'1268'
p191
sF6075016200.0
S'7214'
p192
sF6095252311.0
S'11883'
p193
sF6095252312.0
S'11843'
p194
sF6001402900.0
S'971'
p195
sF6095252313.0
S'1269'
p196
sF6097151000.0
S'1329'
p197
sF6075032601.0
S'13519'
p198
sF6075032602.0
S'7259'
p199
sF6095252314.0
S'11800'
p200
sF6075060400.0
S'190'
p201
sF6095252315.0
S'8840'
p202
sF6081602600.0
S'230'
p203
sF6085512029.0
S'665'
p204
sF6081610800.0
S'324'
p205
sF6085502001.0
S'5151'
p206
sF6085502002.0
S'536'
p207
sF6001435700.0
S'836'
p208
sF6013314102.0
S'1207'
p209
sF6013314103.0
S'1209'
p210
sF6085510200.0
S'384'
p211
sF6085512032.0
S'660'
p212
sF6085509302.0
S'373'
p213
sF6095250502.0
S'1219'
p214
sF6085509600.0
S'12707'
p215
sF6085512001.0
S'4331'
p216
sF6013355107.0
S'10299'
p217
sF6013355108.0
S'11366'
p218
sF6013355109.0
S'11365'
p219
sF6013355110.0
S'1709'
p220
sF6013355111.0
S'1859'
p221
sF6013355112.0
S'1176'
p222
sF6013355113.0
S'8513'
p223
sF6013355114.0
S'1784'
p224
sF6013355115.0
S'1895'
p225
sF6013355116.0
S'2980'
p226
sF6013355117.0
S'8036'
p227
sF6001403000.0
S'2832'
p228
sF6097151100.0
S'8669'
p229
sF6081602700.0
S'6373'
p230
sF6001427600.0
S'962'
p231
sF6013306002.0
S'15975'
p232
sF6013306003.0
S'1671'
p233
sF6013306004.0
S'1681'
p234
sF6085502101.0
S'534'
p235
sF6085502102.0
S'4868'
p236
sF6013314200.0
S'1210'
p237
sF6085510300.0
S'370'
p238
sF6095250601.0
S'1221'
p239
sF6095250604.0
S'9482'
p240
sF6095250605.0
S'11787'
p241
sF6013347000.0
S'1131'
p242
sF6013355200.0
S'1098'
p243
sF6075016400.0
S'6762'
p244
sF6041126100.0
S'1442'
p245
sF6081611300.0
S'322'
p246
sF6001403100.0
S'969'
p247
sF6013388000.0
S'2433'
p248
sF6097151201.0
S'10730'
p249
sF6075032802.0
S'7253'
p250
sF6097151203.0
S'1339'
p251
sF6097151204.0
S'1338'
p252
sF6081602800.0
S'221'
p253
sF6001427700.0
S'963'
p254
sF6081611000.0
S'320'
p255
sF6085502201.0
S'4883'
p256
sF6085502202.0
S'4879'
p257
sF6001435900.0
S'834'
p258
sF6085510400.0
S'371'
p259
sF6001444100.0
S'3757'
p260
sF6095250701.0
S'11091'
p261
sF6085506605.0
S'474'
p262
sF6013355301.0
S'1103'
p263
sF6013355302.0
S'1139'
p264
sF6013355304.0
S'1100'
p265
sF6013355306.0
S'1102'
p266
sF6075016500.0
S'87'
p267
sF6041126200.0
S'1443'
p268
sF6075032901.0
S'13627'
p269
sF6075032902.0
S'7251'
p270
sF6097151305.0
S'1344'
p271
sF6097151306.0
S'1345'
p272
sF6097151307.0
S'1347'
p273
sF6097151308.0
S'1346'
p274
sF6097151309.0
S'1341'
p275
sF6097151310.0
S'1342'
p276
sF6097151311.0
S'1340'
p277
sF6095251000.0
S'11930'
p278
sF6081602900.0
S'6452'
p279
sF6001427800.0
S'959'
p280
sF6081611100.0
S'6130'
p281
sF6085502301.0
S'4889'
p282
sF6085502302.0
S'4314'
p283
sF6001436000.0
S'833'
p284
sF6085510500.0
S'369'
p285
sF6001444200.0
S'770'
p286
sF6095250801.0
S'1238'
p287
sF6013339001.0
S'1959'
p288
sF6013339002.0
S'1145'
p289
sF6041118100.0
S'1435'
p290
sF6075016600.0
S'88'
p291
sF6013380000.0
S'2372'
p292
sF6001403300.0
S'946'
p293
sF6075033000.0
S'186'
p294
sF6097151401.0
S'1349'
p295
sF6097151402.0
S'1348'
p296
sF6081603000.0
S'223'
p297
sF6001427900.0
S'3232'
p298
sF6085502400.0
S'527'
p299
sF6001437600.0
S'816'
p300
sF6001436100.0
S'832'
p301
sF6085510600.0
S'367'
p302
sF6055200201.0
S'1301'
p303
sF6055200202.0
S'1299'
p304
sF6055200203.0
S'1300'
p305
sF6001444301.0
S'2736'
p306
sF6001444302.0
S'12259'
p307
sF6095250900.0
S'1224'
p308
sF6055201700.0
S'11436'
p309
sF6095980000.0
S'11805'
p310
sF6001410300.0
S'880'
p311
sF6075016700.0
S'13548'
p312
sF6001403400.0
S'945'
p313
sF6075033100.0
S'7254'
p314
sF6097151502.0
S'10382'
p315
sF6097151503.0
S'1352'
p316
sF6097151504.0
S'1351'
p317
sF6081603100.0
S'224'
p318
sF6001428000.0
S'955'
p319
sF6085502500.0
S'526'
p320
sF6001436200.0
S'8905'
p321
sF6085510700.0
S'366'
p322
sF6055200301.0
S'8665'
p323
sF6055200302.0
S'1295'
p324
sF6001444400.0
S'772'
p325
sF6013301000.0
S'1181'
p326
sF6013331000.0
S'1110'
p327
sF6041110100.0
S'1427'
p328
sF6013372000.0
S'2382'
p329
sF6075016801.0
S'81'
p330
sF6075016802.0
S'7204'
p331
sF6001403501.0
S'972'
p332
sF6001403502.0
S'11276'
p333
sF6075033201.0
S'13613'
p334
sF6097151602.0
S'8264'
p335
sF6075033203.0
S'189'
p336
sF6075033204.0
S'6900'
p337
sF6081603200.0
S'6045'
p338
sF6001428100.0
S'950'
p339
sF6075060502.0
S'157'
p340
sF6081611400.0
S'6017'
p341
sF6085502601.0
S'529'
p342
sF6085502603.0
S'530'
p343
sF6001436300.0
S'828'
p344
sF6055200400.0
S'1296'
p345
sF6085510801.0
S'12625'
p346
sF6085510802.0
S'364'
p347
sF6085510803.0
S'12631'
p348
sF6001444500.0
S'773'
p349
sF6095251100.0
S'1226'
p350
sF6085502800.0
S'520'
p351
sF6097151601.0
S'1353'
p352
sF6041110200.0
S'1426'
p353
sF6013324001.0
S'9737'
p354
sF6075016900.0
S'82'
p355
sF6075025100.0
S'121'
p356
sF6001403600.0
S'941'
p357
sF6097151700.0
S'1358'
p358
sF6081603300.0
S'6487'
p359
sF6001428200.0
S'951'
p360
sF6081611500.0
S'339'
p361
sF6085502701.0
S'521'
p362
sF6085502702.0
S'519'
p363
sF6001436401.0
S'823'
p364
sF6001436402.0
S'822'
p365
sF6085510900.0
S'360'
p366
sF6055200501.0
S'1305'
p367
sF6055200503.0
S'1298'
p368
sF6013323000.0
S'11355'
p369
sF6055200505.0
S'8725'
p370
sF6001444602.0
S'3762'
p371
sF6095251200.0
S'1232'
p372
sF6041102100.0
S'1413'
p373
sF6013364002.0
S'1080'
p374
sF6075017000.0
S'83'
p375
sF6075025200.0
S'7681'
p376
sF6001403701.0
S'11273'
p377
sF6001403702.0
S'11275'
p378
sF6097151800.0
S'1359'
p379
sF6001420100.0
S'1035'
p380
sF6081603400.0
S'6448'
p381
sF6085502604.0
S'4872'
p382
sF6001428301.0
S'11330'
p383
sF6001428302.0
S'953'
p384
sF6081611600.0
S'338'
p385
sF6001436500.0
S'824'
p386
sF6085511000.0
S'12630'
p387
sF6001404900.0
S'922'
p388
sF6055200602.0
S'1306'
p389
sF6095251300.0
S'1233'
p390
sF6041102202.0
S'7928'
p391
sF6041102203.0
S'8118'
p392
sF6075017101.0
S'13556'
p393
sF6075017102.0
S'13553'
p394
sF6075025300.0
S'13585'
p395
sF6001403800.0
S'939'
p396
sF6097151900.0
S'1360'
p397
sF6001420200.0
S'1036'
p398
sF6001428400.0
S'954'
p399
sF6081611700.0
S'331'
p400
sF6085502901.0
S'522'
p401
sF6085502902.0
S'523'
p402
sF6085502903.0
S'524'
p403
sF6013315000.0
S'12270'
p404
sF6001436601.0
S'825'
p405
sF6085502906.0
S'685'
p406
sF6085502907.0
S'683'
p407
sF6085502908.0
S'684'
p408
sF6085502909.0
S'686'
p409
sF6085502910.0
S'687'
p410
sF6055200703.0
S'1303'
p411
sF6055200704.0
S'1304'
p412
sF6055200705.0
S'8698'
p413
sF6055200706.0
S'1307'
p414
sF6055200707.0
S'8742'
p415
sF6095251400.0
S'11770'
p416
sF6013356001.0
S'10335'
p417
sF6013356002.0
S'10338'
p418
sF6075025401.0
S'124'
p419
sF6075025402.0
S'125'
p420
sF6075025403.0
S'6933'
p421
sF6001403900.0
S'940'
p422
sF6097152000.0
S'1361'
p423
sF6013312000.0
S'1655'
p424
sF6001420300.0
S'8974'
p425
sF6001428500.0
S'957'
p426
sF6081611800.0
S'12400'
p427
sF6085503001.0
S'525'
p428
sF6085503002.0
S'681'
p429
sF6085503003.0
S'682'
p430
sF6001436700.0
S'829'
p431
sF6085511200.0
S'357'
p432
sF6055200802.0
S'8642'
p433
sF6055200803.0
S'1302'
p434
sF6055200804.0
S'8637'
p435
sF6095251500.0
S'1234'
p436
sF6085512200.0
S'4281'
p437
sF6097150304.0
S'1321'
p438
sF6041127000.0
S'1452'
p439
sF6075025500.0
S'6873'
p440
sF6001404000.0
S'973'
p441
sF6097152100.0
S'8377'
p442
sF6001420400.0
S'2483'
p443
sF6081603700.0
S'6469'
p444
sF6001428600.0
S'958'
p445
sF6081611900.0
S'333'
p446
sF6001436800.0
S'827'
p447
sF6085503105.0
S'579'
p448
sF6055200900.0
S'8696'
p449
sF6085511301.0
S'12647'
p450
sF6085503110.0
S'580'
p451
sF6085503111.0
S'577'
p452
sF6085503112.0
S'561'
p453
sF6085503113.0
S'562'
p454
sF6085503115.0
S'566'
p455
sF6085503116.0
S'565'
p456
sF6085503117.0
S'11999'
p457
sF6085503118.0
S'4462'
p458
sF6095251600.0
S'1235'
p459
sF6085503121.0
S'563'
p460
sF6085503122.0
S'4478'
p461
sF6085503123.0
S'4488'
p462
sF6013348000.0
S'11527'
p463
sF6085501300.0
S'554'
p464
sF6075025600.0
S'137'
p465
sF6001404101.0
S'974'
p466
sF6001404102.0
S'2930'
p467
sF6097152201.0
S'1364'
p468
sF6097152202.0
S'1356'
p469
sF6097152203.0
S'1362'
p470
sF6001420500.0
S'1037'
p471
sF6081603801.0
S'6503'
p472
sF6081603802.0
S'6500'
p473
sF6001428700.0
S'964'
p474
sF6013307101.0
S'1194'
p475
sF6013307102.0
S'2392'
p476
sF6081612000.0
S'334'
p477
sF6001436900.0
S'830'
p478
sF6085503207.0
S'573'
p479
sF6085511400.0
S'359'
p480
sF6085503210.0
S'572'
p481
sF6085503211.0
S'576'
p482
sF6055201004.0
S'8673'
p483
sF6055201005.0
S'1292'
p484
sF6055201006.0
S'8675'
p485
sF6055201007.0
S'11030'
p486
sF6085503217.0
S'569'
p487
sF6085503218.0
S'570'
p488
sF6095251701.0
S'1236'
p489
sF6095251702.0
S'1237'
p490
sF6085508004.0
S'479'
p491
sF6075025701.0
S'6815'
p492
sF6075025702.0
S'13507'
p493
sF6001404200.0
S'2975'
p494
sF6097152300.0
S'1365'
p495
sF6001420600.0
S'1034'
p496
sF6081603900.0
S'6514'
p497
sF6013307201.0
S'1197'
p498
sF6013307202.0
S'1190'
p499
sF6081612100.0
S'335'
p500
sF6013307205.0
S'1193'
p501
sF6001437000.0
S'812'
p502
sF6085503305.0
S'4398'
p503
sF6085503306.0
S'584'
p504
sF6085511500.0
S'350'
p505
sF6055201101.0
S'8714'
p506
sF6055201102.0
S'1308'
p507
sF6085503312.0
S'642'
p508
sF6085503313.0
S'647'
p509
sF6085503315.0
S'650'
p510
sF6085503321.0
S'644'
p511
sF6085503322.0
S'643'
p512
sF6085503323.0
S'645'
p513
sF6085503324.0
S'646'
p514
sF6085503325.0
S'649'
p515
sF6085503326.0
S'11177'
p516
sF6085503327.0
S'652'
p517
sF6013340001.0
S'1134'
p518
sF6013340002.0
S'1133'
p519
sF6085503331.0
S'10284'
p520
sF6085503332.0
S'654'
p521
sF6085503333.0
S'11181'
p522
sF6085503334.0
S'11185'
p523
sF6085503336.0
S'651'
p524
sF6085503337.0
S'10132'
p525
sF6041119100.0
S'1436'
p526
sF6075017601.0
S'7568'
p527
sF6013381000.0
S'1058'
p528
sF6001404300.0
S'915'
p529
sF6097152400.0
S'8517'
p530
sF6001400900.0
S'992'
p531
sF6081604000.0
S'235'
p532
sF6085503401.0
S'585'
p533
sF6085503402.0
S'581'
p534
sF6001437101.0
S'3537'
p535
sF6001437102.0
S'3683'
p536
sF6055201200.0
S'1309'
p537
sF6085511608.0
S'12656'
p538
sF6085511609.0
S'5890'
p539
sF6095251901.0
S'1243'
p540
sF6095251902.0
S'1244'
p541
sF6095251903.0
S'1245'
p542
sF6055200504.0
S'1297'
p543
sF6001444601.0
S'3902'
p544
sF6041111000.0
S'1430'
p545
sF6041119201.0
S'7868'
p546
sF6041119202.0
S'1437'
p547
sF6075017700.0
S'7078'
p548
sF6075025900.0
S'152'
p549
sF6001404400.0
S'914'
p550
sF6097152501.0
S'8381'
p551
sF6097152502.0
S'1355'
p552
sF6081604101.0
S'237'
p553
sF6081604102.0
S'234'
p554
sF6085503504.0
S'586'
p555
sF6085503506.0
S'588'
p556
sF6085503507.0
S'587'
p557
sF6055201300.0
S'1310'
p558
sF6085511701.0
S'368'
p559
sF6085503510.0
S'639'
p560
sF6085503511.0
S'640'
p561
sF6085511704.0
S'4609'
p562
sF6085511705.0
S'12637'
p563
sF6085511707.0
S'347'
p564
sF6013332000.0
S'8078'
p565
sF6013373000.0
S'1064'
p566
sF6075017801.0
S'7064'
p567
sF6075017802.0
S'20'
p568
sF6075026001.0
S'135'
p569
sF6075026002.0
S'136'
p570
sF6075026003.0
S'160'
p571
sF6075026004.0
S'161'
p572
sF6001404501.0
S'919'
p573
sF6001404502.0
S'913'
p574
sF6097152600.0
S'1354'
p575
sF6075980900.0
S'6754'
p576
sF6081604200.0
S'9703'
p577
sF6085503601.0
S'593'
p578
sF6085503602.0
S'592'
p579
sF6001437300.0
S'813'
p580
sF6085511800.0
S'512'
p581
sF6055201401.0
S'8752'
p582
sF6055201402.0
S'8619'
p583
sF6055201403.0
S'10251'
p584
sF6095252102.0
S'10000'
p585
sF6095252103.0
S'1218'
p586
sF6095252104.0
S'1217'
p587
sF6095252105.0
S'1216'
p588
sF6095252106.0
S'1215'
p589
sF6095252107.0
S'1214'
p590
sF6095252108.0
S'1213'
p591
sF6075017902.0
S'13621'
p592
sF6075026100.0
S'165'
p593
sF6001404600.0
S'912'
p594
sF6097152701.0
S'1367'
p595
sF6097152702.0
S'1368'
p596
sF6081612500.0
S'5982'
p597
sF6085503703.0
S'9931'
p598
sF6001437400.0
S'814'
p599
sF6085503707.0
S'594'
p600
sF6055201500.0
S'1315'
p601
sF6085503709.0
S'597'
p602
sF6085503710.0
S'5242'
p603
sF6085503711.0
S'591'
p604
sF6085503712.0
S'9923'
p605
sF6085511905.0
S'12515'
p606
sF6013324002.0
S'2141'
p607
sF6085511907.0
S'693'
p608
sF6085511909.0
S'695'
p609
sF6085511910.0
S'691'
p610
sF6085511911.0
S'696'
p611
sF6085511912.0
S'694'
p612
sF6085511913.0
S'689'
p613
sF6085511914.0
S'690'
p614
sF6085511915.0
S'4524'
p615
sF6085511916.0
S'688'
p616
sF6085501200.0
S'550'
p617
sF6041103100.0
S'1414'
p618
sF6081984300.0
S'6565'
p619
sF6013365002.0
S'1068'
p620
sF6013365003.0
S'11579'
p621
sF6075018000.0
S'7021'
p622
sF6081610201.0
S'314'
p623
sF6075026200.0
S'7127'
p624
sF6001404700.0
S'920'
p625
sF6081610202.0
S'6139'
p626
sF6001441925.0
S'3947'
p627
sF6097152801.0
S'1369'
p628
sF6097152802.0
S'1373'
p629
sF6075060700.0
S'110'
p630
sF6075042602.0
S'6777'
p631
sF6001421100.0
S'1030'
p632
sF6081604400.0
S'240'
p633
sF6081612600.0
S'341'
p634
sF6085503802.0
S'630'
p635
sF6085503803.0
S'631'
p636
sF6001437500.0
S'815'
p637
sF6055201601.0
S'8614'
p638
sF6055201602.0
S'1314'
p639
sF6085512005.0
S'680'
p640
sF6085512017.0
S'670'
p641
sF6095252306.0
S'1267'
p642
sF6085512019.0
S'672'
p643
sF6085512020.0
S'671'
p644
sF6085512021.0
S'668'
p645
sF6085512022.0
S'666'
p646
sF6085512023.0
S'667'
p647
sF6085512024.0
S'679'
p648
sF6085512025.0
S'678'
p649
sF6085512026.0
S'673'
p650
sF6085512027.0
S'5813'
p651
sF6095252316.0
S'1257'
p652
sF6095252317.0
S'1270'
p653
sF6085512030.0
S'663'
p654
sF6085512031.0
S'662'
p655
sF6041103200.0
S'1411'
p656
sF6085512033.0
S'661'
p657
sF6085512034.0
S'659'
p658
sF6085512035.0
S'658'
p659
sF6085512036.0
S'9080'
p660
sF6085512037.0
S'664'
p661
sF6085512038.0
S'4333'
p662
sF6085512039.0
S'5858'
p663
sF6085512042.0
S'4348'
p664
sF6085512043.0
S'10120'
p665
sF6085512045.0
S'674'
p666
sF6085512047.0
S'675'
p667
sF6085512052.0
S'4709'
p668
sF6085512053.0
S'676'
p669
sF6075026301.0
S'162'
p670
sF6075026302.0
S'159'
p671
sF6075026303.0
S'163'
p672
sF6001404800.0
S'921'
p673
sF6097152903.0
S'1372'
p674
sF6097152904.0
S'1371'
p675
sF6097152905.0
S'8368'
p676
sF6097152906.0
S'1370'
p677
sF6075042700.0
S'58'
p678
sF6001421200.0
S'1031'
p679
sF6081604500.0
S'241'
p680
sF6081612700.0
S'5979'
p681
sF6085503902.0
S'633'
p682
sF6085503903.0
S'5120'
p683
sF6013316000.0
S'1092'
p684
sF6085512100.0
S'4263'
p685
sF6095252401.0
S'1266'
p686
sF6095252402.0
S'1250'
p687
sF6013357000.0
S'1612'
p688
sF6075026401.0
S'7716'
p689
sF6075026402.0
S'153'
p690
sF6075026403.0
S'154'
p691
sF6075026404.0
S'156'
p692
sF6097153001.0
S'8560'
p693
sF6097153002.0
S'1376'
p694
sF6097153003.0
S'1377'
p695
sF6097153005.0
S'1382'
p696
sF6097153006.0
S'8568'
p697
sF6075042800.0
S'57'
p698
sF6041132200.0
S'1416'
p699
sF6001421300.0
S'12061'
p700
sF6081604600.0
S'6442'
p701
sF6081612800.0
S'344'
p702
sF6085504001.0
S'634'
p703
sF6085504002.0
S'5213'
p704
sF6001437701.0
S'3687'
p705
sF6001437702.0
S'3894'
p706
sF6055201800.0
S'1312'
p707
sF6095252501.0
S'1263'
p708
sF6095252502.0
S'1262'
p709
sF6055200601.0
S'8644'
p710
sF6075010100.0
S'6995'
p711
sF6001405000.0
S'2962'
p712
sF6097153102.0
S'1379'
p713
sF6097153103.0
S'1378'
p714
sF6097153104.0
S'8423'
p715
sF6001421400.0
S'1032'
p716
sF6081604700.0
S'243'
p717
sF6013308001.0
S'1187'
p718
sF6013308002.0
S'9515'
p719
sF6081612900.0
S'345'
p720
sF6085504101.0
S'635'
p721
sF6085504102.0
S'636'
p722
sF6001437800.0
S'818'
p723
sF6055201900.0
S'1316'
p724
sF6085512305.0
S'703'
p725
sF6085512307.0
S'701'
p726
sF6085512308.0
S'698'
p727
sF6085512309.0
S'699'
p728
sF6085512310.0
S'4797'
p729
sF6085512311.0
S'4777'
p730
sF6085512312.0
S'700'
p731
sF6085512313.0
S'4214'
p732
sF6085512314.0
S'4239'
p733
sF6095252604.0
S'1265'
p734
sF6095252605.0
S'1264'
p735
sF6095252606.0
S'11097'
p736
sF6095252607.0
S'1260'
p737
sF6095252608.0
S'1258'
p738
sF6095252610.0
S'8826'
p739
sF6095252611.0
S'11836'
p740
sF6013349000.0
S'1150'
p741
sF6075010200.0
S'7682'
p742
sF6085500100.0
S'5054'
p743
sF6041128100.0
S'1450'
p744
sF6001405100.0
S'938'
p745
sF6097153200.0
S'1380'
p746
sF6001421500.0
S'1029'
p747
sF6081604800.0
S'244'
p748
sF6081613000.0
S'6030'
p749
sF6085504201.0
S'629'
p750
sF6085504202.0
S'10446'
p751
sF6001437900.0
S'819'
p752
sF6055202000.0
S'1317'
p753
sF6085512401.0
S'5090'
p754
sF6085512402.0
S'713'
p755
sF6095252702.0
S'1251'
p756
sF6095252703.0
S'1261'
p757
sF6095252704.0
S'11100'
p758
sF6085508304.0
S'456'
p759
sF6095252706.0
S'1253'
p760
sF6095252707.0
S'1256'
p761
sF6075010300.0
S'39'
p762
sF6041120000.0
S'1440'
p763
sF6041128200.0
S'1451'
p764
sF6001405200.0
S'943'
p765
sF6097153300.0
S'1381'
p766
sF6001421600.0
S'1028'
p767
sF6081604900.0
S'245'
p768
sF6001438000.0
S'804'
p769
sF6085504307.0
S'627'
p770
sF6085504308.0
S'628'
p771
sF6085512503.0
S'711'
p772
sF6085512505.0
S'710'
p773
sF6085504314.0
S'626'
p774
sF6085504315.0
S'623'
p775
sF6085504316.0
S'599'
p776
sF6085512509.0
S'9580'
p777
sF6085504318.0
S'5767'
p778
sF6085504319.0
S'598'
p779
sF6085504320.0
S'624'
p780
sF6085504321.0
S'625'
p781
sF6085504322.0
S'4368'
p782
sF6085504323.0
S'5758'
p783
sF6095252705.0
S'11101'
p784
sF6013341000.0
S'1149'
p785
sF6075010400.0
S'7661'
p786
sF6013382000.0
S'1050'
p787
sF6001405301.0
S'944'
p788
sF6001405302.0
S'2947'
p789
sF6013390200.0
S'2442'
p790
sF6097153401.0
S'1384'
p791
sF6097153403.0
S'1386'
p792
sF6097153404.0
S'10370'
p793
sF6081610304.0
S'6007'
p794
sF6001421700.0
S'2544'
p795
sF6081605000.0
S'246'
p796
sF6081613200.0
S'298'
p797
sF6001438100.0
S'805'
p798
sF6085504410.0
S'5790'
p799
sF6085504411.0
S'622'
p800
sF6085512604.0
S'4176'
p801
sF6085504413.0
S'610'
p802
sF6085504414.0
S'609'
p803
sF6085504415.0
S'619'
p804
sF6085504416.0
S'620'
p805
sF6085504417.0
S'618'
p806
sF6085504418.0
S'617'
p807
sF6085504420.0
S'615'
p808
sF6085504421.0
S'614'
p809
sF6085504422.0
S'613'
p810
sF6085504423.0
S'12082'
p811
sF6095252904.0
S'1279'
p812
sF6095252908.0
S'1276'
p813
sF6095252909.0
S'1278'
p814
sF6095252910.0
S'1277'
p815
sF6095252911.0
S'1280'
p816
sF6095252912.0
S'11950'
p817
sF6095252913.0
S'10507'
p818
sF6095252914.0
S'11104'
p819
sF6095252915.0
S'1271'
p820
sF6075010500.0
S'7467'
p821
sF6001405401.0
S'3172'
p822
sF6001405402.0
S'934'
p823
sF6075035100.0
S'179'
p824
sF6097153501.0
S'1387'
p825
sF6097153502.0
S'1388'
p826
sF6001421800.0
S'1026'
p827
sF6081605100.0
S'6537'
p828
sF6081613300.0
S'300'
p829
sF6085504504.0
S'4378'
p830
sF6001438201.0
S'807'
p831
sF6085504506.0
S'612'
p832
sF6001438203.0
S'12003'
p833
sF6001438204.0
S'12135'
p834
sF6095253000.0
S'1272'
p835
sF6041112100.0
S'1429'
p836
sF6075010600.0
S'37'
p837
sF6013374000.0
S'1056'
p838
sF6001405500.0
S'935'
p839
sF6097153600.0
S'1383'
p840
sF6075035201.0
S'181'
p841
sF6075035202.0
S'13521'
p842
sF6001421900.0
S'1025'
p843
sF6081605200.0
S'247'
p844
sF6001430101.0
S'9825'
p845
sF6001430102.0
S'10321'
p846
sF6081613400.0
S'8192'
p847
sF6085504601.0
S'401'
p848
sF6085504602.0
S'404'
p849
sF6001438300.0
S'808'
p850
sF6001436602.0
S'826'
p851
sF6013386000.0
S'1051'
p852
sF6085511100.0
S'5861'
p853
sF6013333101.0
S'1099'
p854
sF6013333102.0
S'2004'
p855
sF6095253105.0
S'1281'
p856
sF6095253106.0
S'1275'
p857
sF6095253107.0
S'1274'
p858
sF6095253108.0
S'1273'
p859
sF6013390100.0
S'1046'
p860
sF6041112201.0
S'8184'
p861
sF6041112202.0
S'1428'
p862
sF6075010700.0
S'36'
p863
sF6001405600.0
S'936'
p864
sF6075035300.0
S'183'
p865
sF6097153703.0
S'8534'
p866
sF6097153704.0
S'1391'
p867
sF6097153705.0
S'8581'
p868
sF6097153706.0
S'8453'
p869
sF6001422000.0
S'2509'
p870
sF6081605300.0
S'250'
p871
sF6001430200.0
S'845'
p872
sF6085504700.0
S'402'
p873
sF6081613501.0
S'295'
p874
sF6081613502.0
S'294'
p875
sF6001438400.0
S'809'
p876
sF6013325000.0
S'1129'
p877
sF6013333200.0
S'1108'
p878
sF6095253201.0
S'1285'
p879
sF6095253203.0
S'1283'
p880
sF6095253204.0
S'1282'
p881
sF6095253205.0
S'8851'
p882
sF6095253206.0
S'10501'
p883
sF6081608900.0
S'288'
p884
sF6041104101.0
S'1409'
p885
sF6041104102.0
S'1410'
p886
sF6075010800.0
S'35'
p887
sF6013366001.0
S'1070'
p888
sF6013366002.0
S'1071'
p889
sF6001405700.0
S'3168'
p890
sF6075035400.0
S'7269'
p891
sF6097153801.0
S'10253'
p892
sF6097153804.0
S'8478'
p893
sF6097153806.0
S'8586'
p894
sF6097153807.0
S'1396'
p895
sF6097153808.0
S'8593'
p896
sF6097153809.0
S'1395'
p897
sF6001422100.0
S'1024'
p898
sF6081605400.0
S'6189'
p899
sF6001430300.0
S'850'
p900
sF6081613600.0
S'293'
p901
sF6085504802.0
S'4195'
p902
sF6085504803.0
S'12577'
p903
sF6085504805.0
S'421'
p904
sF6085504806.0
S'12570'
p905
sF6085513000.0
S'354'
p906
sF6095253300.0
S'1287'
p907
sF6001442100.0
S'3830'
p908
sF6041104200.0
S'1408'
p909
sF6085504311.0
S'601'
p910
sF6075010900.0
S'34'
p911
sF6085512506.0
S'709'
p912
sF6001405800.0
S'932'
p913
sF6085512508.0
S'708'
p914
sF6097153901.0
S'1397'
p915
sF6097153902.0
S'10017'
p916
sF6085504317.0
S'600'
p917
sF6085512510.0
S'705'
p918
sF6001422200.0
S'1023'
p919
sF6081605500.0
S'6415'
p920
sF6001430400.0
S'3392'
p921
sF6075060100.0
S'52'
p922
sF6085504901.0
S'413'
p923
sF6095252801.0
S'1252'
p924
sF6013317000.0
S'2194'
p925
sF6095252802.0
S'11890'
p926
sF6095253402.0
S'11934'
p927
sF6095253403.0
S'11932'
p928
sF6095253404.0
S'10568'
p929
sF6041104300.0
S'1406'
p930
sF6013358000.0
S'2479'
p931
sF6075011000.0
S'33'
p932
sF6081610400.0
S'330'
p933
sF6001405901.0
S'933'
p934
sF6001405902.0
S'12107'
p935
sF6097154000.0
S'1400'
p936
sF6075016300.0
S'80'
p937
sF6001422300.0
S'1022'
p938
sF6081605600.0
S'252'
p939
sF6001430500.0
S'3441'
p940
sF6081613800.0
S'297'
p941
sF6085505001.0
S'415'
p942
sF6085505006.0
S'4273'
p943
sF6085505007.0
S'414'
p944
sF6085505008.0
S'5793'
p945
sF6085505009.0
S'412'
p946
sF6095253500.0
S'1290'
p947
sF6075011100.0
S'32'
p948
sF6041129000.0
S'1449'
p949
sF6001406000.0
S'9899'
p950
sF6097154100.0
S'1401'
p951
sF6001422400.0
S'1021'
p952
sF6081605700.0
S'254'
p953
sF6001430600.0
S'12128'
p954
sF6095250103.0
S'11001'
p955
sF6081613900.0
S'5971'
p956
sF6095250104.0
S'11494'
p957
sF6013350000.0
S'1152'
p958
sF6075011200.0
S'7778'
p959
sF6013311000.0
S'1203'
p960
sF6001406100.0
S'3192'
p961
sF6013391000.0
S'1043'
p962
sF6097154201.0
S'8489'
p963
sF6097154202.0
S'1402'
p964
sF6075022704.0
S'114'
p965
sF6001422500.0
S'1020'
p966
sF6081605800.0
S'253'
p967
sF6001430700.0
S'3488'
p968
sF6081614000.0
S'228'
p969
sF6085505202.0
S'5351'
p970
sF6085505203.0
S'5299'
p971
sF6075011300.0
S'7597'
p972
sF6001406201.0
S'928'
p973
sF6001406202.0
S'927'
p974
sF6097154302.0
S'1389'
p975
sF6097154303.0
S'8631'
p976
sF6097154304.0
S'1403'
p977
sF6001422600.0
S'2559'
p978
sF6081605900.0
S'6332'
p979
sF6001430800.0
S'846'
p980
sF6085505301.0
S'443'
p981
sF6085505302.0
S'438'
p982
sF6085505303.0
S'437'
p983
sF6085505304.0
S'11147'
p984
sF6085505305.0
S'444'
p985
sF6085513500.0
S'714'
p986
sF6081609100.0
S'9721'
p987
sF6041121100.0
S'7851'
p988
sF6013383000.0
S'2335'
p989
sF6001406300.0
S'929'
p990
sF6001422700.0
S'1007'
p991
sF6081606000.0
S'259'
p992
sF6001430900.0
S'848'
p993
sF6085505401.0
S'441'
p994
sF6085505402.0
S'439'
p995
sF6085505403.0
S'440'
p996
sF6085508504.0
S'448'
p997
sF6085512602.0
S'4162'
p998
sF6085512603.0
S'4165'
p999
sF6041113000.0
S'7912'
p1000
sF6085504412.0
S'616'
p1001
sF6041121200.0
S'1438'
p1002
sF6001406400.0
S'930'
p1003
sF6001422800.0
S'1008'
p1004
sF6081606100.0
S'9601'
p1005
sF6001431000.0
S'847'
p1006
sF6085505500.0
S'436'
p1007
sF6095252903.0
S'1286'
p1008
sF6013334001.0
S'1107'
p1009
sF6013334004.0
S'8059'
p1010
sF6013334006.0
S'1104'
p1011
sF6013375000.0
S'1057'
p1012
sF6081610500.0
S'329'
p1013
sF6001406500.0
S'924'
p1014
sF6085505800.0
S'5132'
p1015
sF6001422900.0
S'2551'
p1016
sF6081606200.0
S'260'
p1017
sF6001431100.0
S'12134'
p1018
sF6085505600.0
S'545'
p1019
sF6041105000.0
S'1407'
p1020
sF6075011700.0
S'7526'
p1021
sF6001406601.0
S'923'
p1022
sF6001406602.0
S'12176'
p1023
sF6001423000.0
S'1017'
p1024
sF6081606300.0
S'9713'
p1025
sF6001431200.0
S'840'
p1026
sF6085505700.0
S'12591'
p1027
sF6013326000.0
S'1941'
p1028
sF6013334200.0
S'9451'
p1029
sF6075011800.0
S'26'
p1030
sF6001406700.0
S'910'
p1031
sF6001423100.0
S'1016'
p1032
sF6081606400.0
S'256'
p1033
sF6075061000.0
S'13503'
p1034
sF6085503108.0
S'564'
p1035
sF6085511302.0
S'5872'
p1036
sF6013367100.0
S'1073'
p1037
sF6075011901.0
S'7441'
p1038
sF6075011902.0
S'7473'
p1039
sF6075020100.0
S'7125'
p1040
sF6001406800.0
S'909'
p1041
sF6081610302.0
S'313'
p1042
sF6001423200.0
S'1015'
p1043
sF6081606500.0
S'13038'
p1044
sF6085505900.0
S'5365'
p1045
sF6013318000.0
S'10349'
p1046
sF6013367200.0
S'1072'
p1047
sF6075020200.0
S'105'
p1048
sF6001406900.0
S'908'
p1049
sF6001423300.0
S'1013'
p1050
sF6081606600.0
S'6309'
p1051
sF6075061200.0
S'141'
p1052
sF6085504505.0
S'4369'
p1053
sF6085504507.0
S'611'
p1054
sF6013359102.0
S'1082'
p1055
sF6013359103.0
S'2207'
p1056
sF6013359104.0
S'2236'
p1057
sF6013359105.0
S'15974'
p1058
sF6075012100.0
S'7479'
p1059
sF6075020300.0
S'104'
p1060
sF6001407000.0
S'906'
p1061
sF6001423400.0
S'1012'
p1062
sF6081606700.0
S'282'
p1063
sF6013310000.0
S'1703'
p1064
sF6085506101.0
S'461'
p1065
sF6085506102.0
S'463'
p1066
sF6085506103.0
S'462'
p1067
sF6013359202.0
S'1774'
p1068
sF6013359203.0
S'1086'
p1069
sF6013359204.0
S'1877'
p1070
sF6075012201.0
S'7452'
p1071
sF6075012202.0
S'7450'
p1072
sF6075020401.0
S'7262'
p1073
sF6075020402.0
S'13599'
p1074
sF6001407101.0
S'11266'
p1075
sF6001407102.0
S'905'
p1076
sF6013392000.0
S'1044'
p1077
sF6075061100.0
S'7640'
p1078
sF6001423500.0
S'2589'
p1079
sF6081609300.0
S'13016'
p1080
sF6075061400.0
S'113'
p1081
sF6085506202.0
S'476'
p1082
sF6085506203.0
S'478'
p1083
sF6085506204.0
S'4739'
p1084
sF6013351101.0
S'1893'
p1085
sF6013351102.0
S'1892'
p1086
sF6013351103.0
S'1148'
p1087
sF6075012301.0
S'7535'
p1088
sF6075012302.0
S'7541'
p1089
sF6041122000.0
S'1439'
p1090
sF6075020500.0
S'13570'
p1091
sF6041130201.0
S'9962'
p1092
sF6041130202.0
S'7812'
p1093
sF6001407200.0
S'925'
p1094
sF6075045100.0
S'67'
p1095
sF6001423601.0
S'1010'
p1096
sF6001423602.0
S'1009'
p1097
sF6081606900.0
S'292'
p1098
sF6013302005.0
S'7733'
p1099
sF6013302006.0
S'1182'
p1100
sF6013302007.0
S'2448'
p1101
sF6013302008.0
S'7728'
p1102
sF6013302009.0
S'1966'
p1103
sF6013302010.0
S'7741'
p1104
sF6075061500.0
S'6981'
p1105
sF6085506301.0
S'471'
p1106
sF6085506302.0
S'470'
p1107
sF6085506304.0
S'472'
p1108
sF6085506305.0
S'473'
p1109
sF6013343001.0
S'1969'
p1110
sF6013343002.0
S'1143'
p1111
sF6013343003.0
S'1142'
p1112
sF6013351200.0
S'1151'
p1113
sF6075012401.0
S'7546'
p1114
sF6075012402.0
S'9'
p1115
sF6075020600.0
S'103'
p1116
sF6013384000.0
S'1053'
p1117
sF6001407300.0
S'896'
p1118
sF6013392200.0
S'2248'
p1119
sF6075045200.0
S'7353'
p1120
sF6001423700.0
S'1006'
p1121
sF6081607000.0
S'6345'
p1122
sF6085503204.0
S'568'
p1123
sF6085506401.0
S'4821'
p1124
sF6085506402.0
S'468'
p1125
sF6001440100.0
S'3543'
p1126
sF6085503208.0
S'571'
p1127
sF6055201003.0
S'1291'
p1128
sF6085503212.0
S'4410'
p1129
sF6085503213.0
S'4412'
p1130
sF6075012501.0
S'7567'
p1131
sF6075012502.0
S'8'
p1132
sF6075020700.0
S'102'
p1133
sF6001407400.0
S'897'
p1134
sF6013392300.0
S'2225'
p1135
sF6001423800.0
S'1004'
p1136
sF6081607100.0
S'285'
p1137
sF6075012000.0
S'31'
p1138
sF6085506501.0
S'469'
p1139
sF6085506502.0
S'4788'
p1140
sF6085506503.0
S'503'
p1141
sF6001440200.0
S'802'
p1142
sF6013335000.0
S'1116'
p1143
sF6041114100.0
S'1434'
p1144
sF6075012601.0
S'7711'
p1145
sF6075012602.0
S'6934'
p1146
sF6013376000.0
S'1063'
p1147
sF6001407500.0
S'898'
p1148
sF6001423901.0
S'2587'
p1149
sF6001423902.0
S'1003'
p1150
sF6081607200.0
S'284'
p1151
sF6001432100.0
S'868'
p1152
sF6085506601.0
S'475'
p1153
sF6001435800.0
S'835'
p1154
sF6085506603.0
S'501'
p1155
sF6085506604.0
S'499'
p1156
sF6001440301.0
S'797'
p1157
sF6085506606.0
S'502'
p1158
sF6001440304.0
S'3309'
p1159
sF6001440305.0
S'792'
p1160
sF6001440306.0
S'791'
p1161
sF6001440307.0
S'798'
p1162
sF6001440308.0
S'3719'
p1163
sF6081609800.0
S'303'
p1164
sF6001442400.0
S'12041'
p1165
sF6001440331.0
S'795'
p1166
sF6001440332.0
S'794'
p1167
sF6001440333.0
S'12181'
p1168
sF6001440334.0
S'3104'
p1169
sF6001440335.0
S'3334'
p1170
sF6001440336.0
S'3326'
p1171
sF6041106001.0
S'1424'
p1172
sF6041106002.0
S'8700'
p1173
sF6041114200.0
S'1419'
p1174
sF6075012700.0
S'51'
p1175
sF6075020900.0
S'7143'
p1176
sF6001407600.0
S'904'
p1177
sF6001424001.0
S'995'
p1178
sF6001424002.0
S'994'
p1179
sF6081607300.0
S'283'
p1180
sF6001432200.0
S'869'
p1181
sF6085506701.0
S'500'
p1182
sF6085506702.0
S'505'
p1183
sF6085506703.0
S'506'
p1184
sF6013327000.0
S'1122'
p1185
sF6075012800.0
S'50'
p1186
sF6013368001.0
S'11534'
p1187
sF6013368002.0
S'1067'
p1188
sF6075021000.0
S'99'
p1189
sF6081610700.0
S'323'
p1190
sF6001407700.0
S'903'
p1191
sF6085506000.0
S'464'
p1192
sF6081607400.0
S'6364'
p1193
sF6001432300.0
S'870'
p1194
sF6085506801.0
S'518'
p1195
sF6085506802.0
S'9070'
p1196
sF6085506803.0
S'515'
p1197
sF6085506804.0
S'516'
p1198
sF6013389100.0
S'2432'
p1199
sF6075012901.0
S'7709'
p1200
sF6075012902.0
S'6819'
p1201
sF6075021100.0
S'98'
p1202
sF6085503214.0
S'567'
p1203
sF6001407800.0
S'3466'
p1204
sF6081607500.0
S'278'
p1205
sF6001432400.0
S'3282'
p1206
sF6085506900.0
S'514'
p1207
sF6013319000.0
S'1094'
p1208
sF6075013000.0
S'45'
p1209
sF6075021200.0
S'95'
p1210
sF6013307204.0
S'1192'
p1211
sF6001407900.0
S'907'
p1212
sF6081607600.0
S'279'
p1213
sF6085503304.0
S'582'
p1214
sF6001432501.0
S'872'
p1215
sF6001432502.0
S'3356'
p1216
sF6085507001.0
S'511'
p1217
sF6085507002.0
S'513'
p1218
sF6013360101.0
S'2373'
p1219
sF6013360102.0
S'2416'
p1220
sF6075013101.0
S'7531'
p1221
sF6075013102.0
S'12220'
p1222
sF6075021300.0
S'7297'
p1223
sF6001408000.0
S'911'
p1224
sF6081607701.0
S'262'
p1225
sF6081607702.0
S'6101'
p1226
sF6001432600.0
S'3369'
p1227
sF6085507100.0
S'4610'
p1228
sF6095251802.0
S'11018'
p1229
sF6075047600.0
S'7205'
p1230
sF6095251803.0
S'1240'
p1231
sF6095251804.0
S'1239'
p1232
sF6085503329.0
S'11180'
p1233
sF6013360200.0
S'1078'
p1234
sF6085503330.0
S'653'
p1235
sF6075013200.0
S'49'
p1236
sF6081609400.0
S'308'
p1237
sF6075021400.0
S'97'
p1238
sF6041131100.0
S'10233'
p1239
sF6001408100.0
S'885'
p1240
sF6081607800.0
S'264'
p1241
sF6001432700.0
S'867'
p1242
sF6085507203.0
S'11151'
p1243
sF6085507205.0
S'507'
p1244
sF6085507206.0
S'510'
p1245
sF6013352101.0
S'1159'
p1246
sF6013352102.0
S'1160'
p1247
sF6075013300.0
S'71'
p1248
sF6041123000.0
S'11458'
p1249
sF6075021500.0
S'7308'
p1250
sF6001408200.0
S'901'
p1251
sF6081607900.0
S'6094'
p1252
sF6001432800.0
S'866'
p1253
sF6085507301.0
S'497'
p1254
sF6085507302.0
S'496'
p1255
sF6013352201.0
S'1158'
p1256
sF6013352202.0
S'1157'
p1257
sF6075013400.0
S'13646'
p1258
sF6075021600.0
S'7295'
p1259
sF6001400100.0
S'1005'
p1260
sF6001408300.0
S'886'
p1261
sF6075025800.0
S'6729'
p1262
sF6013303102.0
S'7753'
p1263
sF6013303103.0
S'7765'
p1264
sF6081608001.0
S'270'
p1265
sF6081608002.0
S'271'
p1266
sF6081608004.0
S'6396'
p1267
sF6085507401.0
S'493'
p1268
sF6085507402.0
S'498'
p1269
sF6001441100.0
S'12050'
p1270
sF6081608013.0
S'273'
p1271
sF6013314104.0
S'1208'
p1272
sF6081608023.0
S'272'
p1273
sF6013389200.0
S'1040'
p1274
sF6041115000.0
S'1420'
p1275
sF6075013500.0
S'47'
p1276
sF6075021700.0
S'130'
p1277
sF6001400200.0
S'999'
p1278
sF6013385100.0
S'11342'
p1279
sF6001408400.0
S'889'
p1280
sF6095250501.0
S'1228'
p1281
sF6013303201.0
S'15955'
p1282
sF6013303202.0
S'11504'
p1283
sF6013303203.0
S'15954'
p1284
sF6081608100.0
S'268'
p1285
sF6013303205.0
S'7771'
p1286
sF6001433000.0
S'865'
p1287
sF6085507500.0
S'494'
p1288
sF6001441200.0
S'782'
p1289
sF6085507600.0
S'5095'
p1290
sF6001981900.0
S'965'
p1291
sF6013303204.0
S'1829'
p1292
sF6013377000.0
S'1061'
p1293
sF6001400300.0
S'998'
p1294
sF6013385200.0
S'1052'
p1295
sF6075980200.0
S'56'
p1296
sF6001408500.0
S'890'
p1297
sF6001450750.0
S'3362'
p1298
sF6001450751.0
S'729'
p1299
sF6001450752.0
S'3713'
p1300
sF6081608200.0
S'267'
p1301
sF6075980300.0
S'7286'
p1302
sF6001433102.0
S'863'
p1303
sF6001433103.0
S'3307'
p1304
sF6001433104.0
S'3389'
p1305
sF6001441301.0
S'12142'
p1306
sF6001441302.0
S'12144'
p1307
sF6013336101.0
S'1115'
p1308
sF6013336102.0
S'8121'
p1309
sF6001982000.0
S'9904'
p1310
sF6041107000.0
S'1423'
p1311
sF6001400400.0
S'1000'
p1312
sF6075030101.0
S'7292'
p1313
sF6075030102.0
S'91'
p1314
sF6001408600.0
S'12090'
p1315
sF6081600100.0
S'208'
p1316
sF6081608300.0
S'269'
p1317
sF6001433200.0
S'862'
p1318
sF6075980401.0
S'10435'
p1319
sF6085507701.0
S'4752'
p1320
sF6085507702.0
S'489'
p1321
sF6085507703.0
S'488'
p1322
sF6001441401.0
S'787'
p1323
sF6001441402.0
S'799'
p1324
sF6013328000.0
S'1113'
p1325
sF6013336201.0
S'1120'
p1326
sF6013336202.0
S'8127'
p1327
sF6081609000.0
S'6166'
p1328
sF6013369001.0
S'11564'
p1329
sF6013369002.0
S'1075'
p1330
sF6001400500.0
S'1001'
p1331
sF6075030201.0
S'176'
p1332
sF6075030202.0
S'175'
p1333
sF6001408700.0
S'899'
p1334
sF6081600200.0
S'207'
p1335
sF6001425101.0
S'2633'
p1336
sF6001425102.0
S'8990'
p1337
sF6001425103.0
S'2639'
p1338
sF6001425104.0
S'2768'
p1339
sF6001433300.0
S'861'
p1340
sF6075980501.0
S'158'
p1341
sF6001441501.0
S'790'
p1342
sF6085507806.0
S'12691'
p1343
sF6001441503.0
S'3767'
p1344
sF6085507808.0
S'492'
p1345
sF6075032700.0
S'178'
p1346
sF6001441521.0
S'788'
p1347
sF6001441522.0
S'789'
p1348
sF6001441523.0
S'12188'
p1349
sF6001441524.0
S'3897'
p1350
sF6001400600.0
S'9781'
p1351
sF6075030301.0
S'174'
p1352
sF6075030302.0
S'173'
p1353
sF6001408800.0
S'12109'
p1354
sF6081600300.0
S'206'
p1355
sF6081608501.0
S'277'
p1356
sF6081608502.0
S'276'
p1357
sF6075980600.0
S'146'
p1358
sF6085507903.0
S'481'
p1359
sF6085507904.0
S'480'
p1360
sF6013320001.0
S'1095'
p1361
sF6001441602.0
S'785'
p1362
sF6013320003.0
S'2161'
p1363
sF6013320004.0
S'8097'
p1364
sF6081606800.0
S'291'
p1365
sF6013361000.0
S'2300'
p1366
sF6075021800.0
S'13598'
p1367
sF6081610900.0
S'325'
p1368
sF6001400700.0
S'996'
p1369
sF6075030400.0
S'172'
p1370
sF6001408900.0
S'12111'
p1371
sF6081600401.0
S'6247'
p1372
sF6081600402.0
S'6246'
p1373
sF6081608600.0
S'9718'
p1374
sF6001433500.0
S'859'
p1375
sF6085508001.0
S'484'
p1376
sF6085508003.0
S'12704'
p1377
sF6001441700.0
S'12146'
p1378
sF6001400800.0
S'993'
p1379
sF6075030500.0
S'13605'
p1380
sF6001409000.0
S'3270'
p1381
sF6081600500.0
S'202'
p1382
sF6081608700.0
S'13007'
p1383
sF6001433600.0
S'858'
p1384
sF6085508101.0
S'5410'
p1385
sF6085508102.0
S'12538'
p1386
sF6001441800.0
S'3794'
p1387
sF6013353001.0
S'1156'
p1388
sF6013353002.0
S'1153'
p1389
sF6041132100.0
S'5451'
p1390
sF6075030600.0
S'171'
p1391
sF6001409100.0
S'876'
p1392
sF6081600600.0
S'203'
p1393
sF6081608800.0
S'289'
p1394
sF6001437200.0
S'811'
p1395
sF6001433700.0
S'8929'
p1396
sF6085503804.0
S'632'
p1397
sF6085508202.0
S'459'
p1398
sF6085508203.0
S'457'
p1399
sF6085508204.0
S'458'
p1400
sF6001450101.0
S'9473'
p1401
sF6001450102.0
S'730'
p1402
sF6085503508.0
S'638'
p1403
sF6085503509.0
S'641'
p1404
sF6001441921.0
S'12191'
p1405
sF6001441923.0
S'777'
p1406
sF6001441924.0
S'3796'
p1407
sF6085511702.0
S'385'
p1408
sF6001441926.0
S'3957'
p1409
sF6001441927.0
S'763'
p1410
sF6097153903.0
S'1398'
p1411
sF6001401000.0
S'977'
p1412
sF6075030700.0
S'7171'
p1413
sF6001409200.0
S'877'
p1414
sF6081600700.0
S'6708'
p1415
sF6013304001.0
S'7773'
p1416
sF6013304002.0
S'1177'
p1417
sF6013304003.0
S'1715'
p1418
sF6013304004.0
S'11569'
p1419
sF6013304005.0
S'7766'
p1420
sF6001433800.0
S'3446'
p1421
sF6085508301.0
S'454'
p1422
sF6085508303.0
S'455'
p1423
sF6001442000.0
S'780'
p1424
sF6001450200.0
S'731'
p1425
sF6041124100.0
S'1445'
p1426
sF6075022600.0
S'111'
p1427
sF6001401100.0
S'2692'
p1428
sF6075030800.0
S'170'
p1429
sF6001409300.0
S'878'
p1430
sF6081613700.0
S'296'
p1431
sF6081600800.0
S'192'
p1432
sF6085500200.0
S'546'
p1433
sF6001433900.0
S'854'
p1434
sF6085508401.0
S'453'
p1435
sF6085508403.0
S'452'
p1436
sF6085508404.0
S'451'
p1437
sF6001450300.0
S'732'
p1438
sF6075032801.0
S'13628'
p1439
sF6013345101.0
S'1172'
p1440
sF6013345102.0
S'1173'
p1441
sF6013345103.0
S'8035'
p1442
sF6013345105.0
S'1169'
p1443
sF6013345108.0
S'1168'
p1444
sF6013345111.0
S'1175'
p1445
sF6013345112.0
S'1711'
p1446
sF6013345113.0
S'1167'
p1447
sF6013345114.0
S'11511'
p1448
sF6013345115.0
S'1171'
p1449
sF6013345116.0
S'11364'
p1450
sF6041116000.0
S'1433'
p1451
sF6041124200.0
S'7809'
p1452
sF6075022702.0
S'112'
p1453
sF6001401200.0
S'975'
p1454
sF6075030900.0
S'169'
p1455
sF6001409400.0
S'892'
p1456
sF6085507905.0
S'483'
p1457
sF6081600900.0
S'6914'
p1458
sF6085500300.0
S'9390'
p1459
sF6001434000.0
S'855'
p1460
sF6085508503.0
S'449'
p1461
sF6001442200.0
S'3817'
p1462
sF6085508505.0
S'447'
p1463
sF6085508507.0
S'5434'
p1464
sF6085508508.0
S'445'
p1465
sF6001450400.0
S'733'
p1466
sF6013345202.0
S'1170'
p1467
sF6013345203.0
S'1161'
p1468
sF6013345204.0
S'1767'
p1469
sF6013378000.0
S'10600'
p1470
sF6075022801.0
S'116'
p1471
sF6075022802.0
S'7155'
p1472
sF6075022803.0
S'117'
p1473
sF6001401300.0
S'979'
p1474
sF6075031000.0
S'132'
p1475
sF6001409500.0
S'12112'
p1476
sF6081601000.0
S'196'
p1477
sF6085500400.0
S'5106'
p1478
sF6081609201.0
S'6170'
p1479
sF6081609202.0
S'6167'
p1480
sF6085508601.0
S'12601'
p1481
sF6085508602.0
S'450'
p1482
sF6001442301.0
S'3697'
p1483
sF6001442302.0
S'3924'
p1484
sF6001450501.0
S'3295'
p1485
sF6001450502.0
S'734'
p1486
sF6013337100.0
S'1117'
p1487
sF6075022901.0
S'118'
p1488
sF6075022902.0
S'119'
p1489
sF6075022903.0
S'120'
p1490
sF6001401400.0
S'978'
p1491
sF6075031100.0
S'133'
p1492
sF6001409600.0
S'891'
p1493
sF6081601100.0
S'195'
p1494
sF6085500500.0
S'541'
p1495
sF6085508703.0
S'446'
p1496
sF6085508704.0
S'427'
p1497
sF6013329000.0
S'2012'
p1498
sF6001450601.0
S'3960'
p1499
sF6001450602.0
S'4007'
p1500
sF6001450603.0
S'737'
p1501
sF6001450604.0
S'741'
p1502
sF6001450605.0
S'8307'
p1503
sF6001450606.0
S'738'
p1504
sF6001450607.0
S'739'
p1505
sF6013337200.0
S'8124'
p1506
sF6041108100.0
S'1422'
p1507
sF6013370000.0
S'8958'
p1508
sF6075023001.0
S'139'
p1509
sF6075023003.0
S'140'
p1510
sF6001401500.0
S'990'
p1511
sF6075031201.0
S'6884'
p1512
sF6075031202.0
S'166'
p1513
sF6001409700.0
S'888'
p1514
sF6081601200.0
S'193'
p1515
sF6041133000.0
S'10363'
p1516
sF6001426100.0
S'918'
p1517
sF6085500600.0
S'5112'
p1518
sF6085508800.0
S'425'
p1519
sF6001442500.0
S'12034'
p1520
sF6095253101.0
S'8829'
p1521
sF6001450701.0
S'2762'
p1522
sF6013337300.0
S'1138'
p1523
sF6001983200.0
S'2815'
p1524
sF6041108200.0
S'1421'
p1525
sF6001450741.0
S'744'
p1526
sF6001450742.0
S'11233'
p1527
sF6001450743.0
S'3056'
p1528
sF6001450744.0
S'2982'
p1529
sF6001450745.0
S'743'
p1530
sF6001450746.0
S'12156'
p1531
sF6075023102.0
S'144'
p1532
sF6075023103.0
S'145'
p1533
sF6001401600.0
S'989'
p1534
sF6075031301.0
S'168'
p1535
sF6075031302.0
S'7255'
p1536
sF6001409800.0
S'887'
p1537
sF6081601300.0
S'6692'
p1538
sF6075047701.0
S'61'
p1539
sF6075047702.0
S'60'
p1540
sF6001426200.0
S'917'
p1541
sF6081609500.0
S'307'
p1542
sF6085508900.0
S'423'
p1543
sF6001442601.0
S'12028'
p1544
sF6001442602.0
S'775'
p1545
sF6081601501.0
S'197'
p1546
sF6075047902.0
S'7173'
p1547
sF6013362000.0
S'1076'
p1548
sF6075023200.0
S'13508'
p1549
sF6001401700.0
S'12072'
p1550
sF6075031400.0
S'13647'
p1551
sF6001409900.0
S'884'
p1552
sF6081601400.0
S'194'
p1553
sF6075047801.0
S'59'
p1554
sF6075047802.0
S'7299'
p1555
sF6085500800.0
S'5196'
p1556
sF6081609601.0
S'306'
p1557
sF6081609602.0
S'305'
p1558
sF6081609603.0
S'13013'
p1559
sF6085509000.0
S'424'
p1560
sF6001442700.0
S'12025'
p1561
sF6013321101.0
S'2159'
p1562
sF6013321102.0
S'1126'
p1563
sF6013321103.0
S'1125'
p1564
sF6097151301.0
S'1343'
p1565
sF6001442800.0
S'765'
p1566
sF6075015100.0
S'7430'
p1567
sF6075023300.0
S'150'
p1568
sF6001401800.0
S'987'
p1569
sF6001410000.0
S'883'
p1570
sF6075047901.0
S'54'
p1571
sF6081601502.0
S'6204'
p1572
sF6081609700.0
S'302'
p1573
sF6085500901.0
S'557'
p1574
sF6085500902.0
S'4958'
p1575
sF6085509102.0
S'12581'
p1576
sF6013321200.0
S'8100'
p1577
sF6085509105.0
S'391'
p1578
sF6085509106.0
S'393'
p1579
sF6085509107.0
S'392'
p1580
sF6085509108.0
S'5384'
p1581
sF6085509109.0
S'397'
p1582
s.